SF:C:\src\github\rtreit\qsoripper\src\rust\qsoripper-tui\src\app.rs
FN:262,_RINvMs_NtCshsDc5n3nbao_13qsoripper_tui3appNtB5_3App10set_statusNtNtCs2ocB3yIIgEv_5alloc6string6StringEB7_
FN:262,_RINvMs_NtCshsDc5n3nbao_13qsoripper_tui3appNtB5_3App10set_statusReEB7_
FN:271,_RINvMs_NtCshsDc5n3nbao_13qsoripper_tui3appNtB5_3App9set_errorNtNtCs2ocB3yIIgEv_5alloc6string6StringEB7_
FN:271,_RINvMs_NtCshsDc5n3nbao_13qsoripper_tui3appNtB5_3App9set_errorReEB7_
FN:196,_RNCNvMs_NtCshsDc5n3nbao_13qsoripper_tui3appNtB6_3App13filtered_qsos0B8_
FN:202,_RNCNvMs_NtCshsDc5n3nbao_13qsoripper_tui3appNtB6_3App14find_qso_by_id0B8_
FN:63,_RNvMNtCshsDc5n3nbao_13qsoripper_tui3appNtB2_9RecentQso14matches_search
FN:229,_RNvMs_NtCshsDc5n3nbao_13qsoripper_tui3appNtB4_3App11reset_timer
FN:280,_RNvMs_NtCshsDc5n3nbao_13qsoripper_tui3appNtB4_3App13expire_status
FN:189,_RNvMs_NtCshsDc5n3nbao_13qsoripper_tui3appNtB4_3App13filtered_qsos
FN:216,_RNvMs_NtCshsDc5n3nbao_13qsoripper_tui3appNtB4_3App13tick_debounce
FN:201,_RNvMs_NtCshsDc5n3nbao_13qsoripper_tui3appNtB4_3App14find_qso_by_id
FN:246,_RNvMs_NtCshsDc5n3nbao_13qsoripper_tui3appNtB4_3App16qso_duration_str
FN:236,_RNvMs_NtCshsDc5n3nbao_13qsoripper_tui3appNtB4_3App19on_callsign_changed
FN:206,_RNvMs_NtCshsDc5n3nbao_13qsoripper_tui3appNtB4_3App20reset_qso_start_time
FN:162,_RNvMs_NtCshsDc5n3nbao_13qsoripper_tui3appNtB4_3App3new
FN:300,_RNvNtNtCshsDc5n3nbao_13qsoripper_tui3app5tests8make_qso
FN:316,_RNvNtNtCshsDc5n3nbao_13qsoripper_tui3app5testss_22new_app_starts_running
FN:536,_RNvNtNtCshsDc5n3nbao_13qsoripper_tui3app5testss_23matches_search_no_match
FN:514,_RNvNtNtCshsDc5n3nbao_13qsoripper_tui3app5testss_25matches_search_finds_band
FN:437,_RNvNtNtCshsDc5n3nbao_13qsoripper_tui3app5testss_28reset_timer_clears_all_state
FN:507,_RNvNtNtCshsDc5n3nbao_13qsoripper_tui3app5testss_29matches_search_finds_callsign
FN:428,_RNvNtNtCshsDc5n3nbao_13qsoripper_tui3app5testss_30qso_duration_str_formats_hours
FN:353,_RNvNtNtCshsDc5n3nbao_13qsoripper_tui3app5testss_31find_qso_by_id_returns_matching
FN:377,_RNvNtNtCshsDc5n3nbao_13qsoripper_tui3app5testss_31set_error_creates_error_message
FN:386,_RNvNtNtCshsDc5n3nbao_13qsoripper_tui3app5testss_33expire_status_keeps_fresh_message
FN:394,_RNvNtNtCshsDc5n3nbao_13qsoripper_tui3app5testss_33expire_status_removes_old_message
FN:334,_RNvNtNtCshsDc5n3nbao_13qsoripper_tui3app5testss_33filtered_qsos_filters_by_callsign
FN:406,_RNvNtNtCshsDc5n3nbao_13qsoripper_tui3app5testss_34expire_status_noop_with_no_message
FN:368,_RNvNtNtCshsDc5n3nbao_13qsoripper_tui3app5testss_34set_status_creates_success_message
FN:542,_RNvNtNtCshsDc5n3nbao_13qsoripper_tui3app5testss_35matches_search_optional_fields_none
FN:499,_RNvNtNtCshsDc5n3nbao_13qsoripper_tui3app5testss_36reset_qso_start_time_activates_timer
FN:447,_RNvNtNtCshsDc5n3nbao_13qsoripper_tui3app5testss_37on_callsign_changed_records_timestamp
FN:345,_RNvNtNtCshsDc5n3nbao_13qsoripper_tui3app5testss_40filtered_qsos_returns_none_when_no_match
FN:362,_RNvNtNtCshsDc5n3nbao_13qsoripper_tui3app5testss_40find_qso_by_id_returns_none_when_missing
FN:419,_RNvNtNtCshsDc5n3nbao_13qsoripper_tui3app5testss_41qso_duration_str_returns_some_when_active
FN:465,_RNvNtNtCshsDc5n3nbao_13qsoripper_tui3app5testss_41tick_debounce_activates_timer_after_delay
FN:326,_RNvNtNtCshsDc5n3nbao_13qsoripper_tui3app5testss_43filtered_qsos_returns_all_when_search_empty
FN:456,_RNvNtNtCshsDc5n3nbao_13qsoripper_tui3app5testss_43on_callsign_changed_clears_timer_when_empty
FN:413,_RNvNtNtCshsDc5n3nbao_13qsoripper_tui3app5testss_43qso_duration_str_returns_none_when_inactive
FN:491,_RNvNtNtCshsDc5n3nbao_13qsoripper_tui3app5testss_45tick_debounce_does_nothing_when_no_last_typed
FN:474,_RNvNtNtCshsDc5n3nbao_13qsoripper_tui3app5testss_46tick_debounce_does_nothing_when_already_active
FN:483,_RNvNtNtCshsDc5n3nbao_13qsoripper_tui3app5testss_46tick_debounce_does_nothing_when_callsign_empty
FNDA:4,_RINvMs_NtCshsDc5n3nbao_13qsoripper_tui3appNtB5_3App10set_statusNtNtCs2ocB3yIIgEv_5alloc6string6StringEB7_
FNDA:3,_RINvMs_NtCshsDc5n3nbao_13qsoripper_tui3appNtB5_3App10set_statusReEB7_
FNDA:3,_RINvMs_NtCshsDc5n3nbao_13qsoripper_tui3appNtB5_3App9set_errorNtNtCs2ocB3yIIgEv_5alloc6string6StringEB7_
FNDA:2,_RINvMs_NtCshsDc5n3nbao_13qsoripper_tui3appNtB5_3App9set_errorReEB7_
FNDA:3,_RNCNvMs_NtCshsDc5n3nbao_13qsoripper_tui3appNtB6_3App13filtered_qsos0B8_
FNDA:2,_RNCNvMs_NtCshsDc5n3nbao_13qsoripper_tui3appNtB6_3App14find_qso_by_id0B8_
FNDA:13,_RNvMNtCshsDc5n3nbao_13qsoripper_tui3appNtB2_9RecentQso14matches_search
FNDA:4,_RNvMs_NtCshsDc5n3nbao_13qsoripper_tui3appNtB4_3App11reset_timer
FNDA:3,_RNvMs_NtCshsDc5n3nbao_13qsoripper_tui3appNtB4_3App13expire_status
FNDA:42,_RNvMs_NtCshsDc5n3nbao_13qsoripper_tui3appNtB4_3App13filtered_qsos
FNDA:5,_RNvMs_NtCshsDc5n3nbao_13qsoripper_tui3appNtB4_3App13tick_debounce
FNDA:3,_RNvMs_NtCshsDc5n3nbao_13qsoripper_tui3appNtB4_3App14find_qso_by_id
FNDA:17,_RNvMs_NtCshsDc5n3nbao_13qsoripper_tui3appNtB4_3App16qso_duration_str
FNDA:4,_RNvMs_NtCshsDc5n3nbao_13qsoripper_tui3appNtB4_3App19on_callsign_changed
FNDA:2,_RNvMs_NtCshsDc5n3nbao_13qsoripper_tui3appNtB4_3App20reset_qso_start_time
FNDA:133,_RNvMs_NtCshsDc5n3nbao_13qsoripper_tui3appNtB4_3App3new
FNDA:8,_RNvNtNtCshsDc5n3nbao_13qsoripper_tui3app5tests8make_qso
FNDA:1,_RNvNtNtCshsDc5n3nbao_13qsoripper_tui3app5testss_22new_app_starts_running
FNDA:1,_RNvNtNtCshsDc5n3nbao_13qsoripper_tui3app5testss_23matches_search_no_match
FNDA:1,_RNvNtNtCshsDc5n3nbao_13qsoripper_tui3app5testss_25matches_search_finds_band
FNDA:1,_RNvNtNtCshsDc5n3nbao_13qsoripper_tui3app5testss_28reset_timer_clears_all_state
FNDA:1,_RNvNtNtCshsDc5n3nbao_13qsoripper_tui3app5testss_29matches_search_finds_callsign
FNDA:1,_RNvNtNtCshsDc5n3nbao_13qsoripper_tui3app5testss_30qso_duration_str_formats_hours
FNDA:1,_RNvNtNtCshsDc5n3nbao_13qsoripper_tui3app5testss_31find_qso_by_id_returns_matching
FNDA:1,_RNvNtNtCshsDc5n3nbao_13qsoripper_tui3app5testss_31set_error_creates_error_message
FNDA:1,_RNvNtNtCshsDc5n3nbao_13qsoripper_tui3app5testss_33expire_status_keeps_fresh_message
FNDA:1,_RNvNtNtCshsDc5n3nbao_13qsoripper_tui3app5testss_33expire_status_removes_old_message
FNDA:1,_RNvNtNtCshsDc5n3nbao_13qsoripper_tui3app5testss_33filtered_qsos_filters_by_callsign
FNDA:1,_RNvNtNtCshsDc5n3nbao_13qsoripper_tui3app5testss_34expire_status_noop_with_no_message
FNDA:1,_RNvNtNtCshsDc5n3nbao_13qsoripper_tui3app5testss_34set_status_creates_success_message
FNDA:1,_RNvNtNtCshsDc5n3nbao_13qsoripper_tui3app5testss_35matches_search_optional_fields_none
FNDA:1,_RNvNtNtCshsDc5n3nbao_13qsoripper_tui3app5testss_36reset_qso_start_time_activates_timer
FNDA:1,_RNvNtNtCshsDc5n3nbao_13qsoripper_tui3app5testss_37on_callsign_changed_records_timestamp
FNDA:1,_RNvNtNtCshsDc5n3nbao_13qsoripper_tui3app5testss_40filtered_qsos_returns_none_when_no_match
FNDA:1,_RNvNtNtCshsDc5n3nbao_13qsoripper_tui3app5testss_40find_qso_by_id_returns_none_when_missing
FNDA:1,_RNvNtNtCshsDc5n3nbao_13qsoripper_tui3app5testss_41qso_duration_str_returns_some_when_active
FNDA:1,_RNvNtNtCshsDc5n3nbao_13qsoripper_tui3app5testss_41tick_debounce_activates_timer_after_delay
FNDA:1,_RNvNtNtCshsDc5n3nbao_13qsoripper_tui3app5testss_43filtered_qsos_returns_all_when_search_empty
FNDA:1,_RNvNtNtCshsDc5n3nbao_13qsoripper_tui3app5testss_43on_callsign_changed_clears_timer_when_empty
FNDA:1,_RNvNtNtCshsDc5n3nbao_13qsoripper_tui3app5testss_43qso_duration_str_returns_none_when_inactive
FNDA:1,_RNvNtNtCshsDc5n3nbao_13qsoripper_tui3app5testss_45tick_debounce_does_nothing_when_no_last_typed
FNDA:1,_RNvNtNtCshsDc5n3nbao_13qsoripper_tui3app5testss_46tick_debounce_does_nothing_when_already_active
FNDA:1,_RNvNtNtCshsDc5n3nbao_13qsoripper_tui3app5testss_46tick_debounce_does_nothing_when_callsign_empty
FNF:41
FNH:41
DA:63,13
DA:64,13
DA:65,11
DA:66,10
DA:67,9
DA:68,9
DA:69,9
DA:70,9
DA:71,9
DA:72,9
DA:73,9
DA:74,9
DA:75,8
DA:76,8
DA:77,8
DA:78,8
DA:79,8
DA:80,8
DA:81,7
DA:82,7
DA:83,7
DA:84,7
DA:85,7
DA:86,7
DA:87,6
DA:88,13
DA:162,133
DA:163,133
DA:164,133
DA:165,133
DA:166,133
DA:167,133
DA:168,133
DA:169,133
DA:170,133
DA:171,133
DA:172,133
DA:173,133
DA:174,133
DA:175,133
DA:176,133
DA:177,133
DA:178,133
DA:179,133
DA:180,133
DA:181,133
DA:182,133
DA:183,133
DA:184,133
DA:189,42
DA:190,42
DA:191,38
DA:192,4
DA:193,4
DA:194,4
DA:195,4
DA:196,4
DA:197,4
DA:198,42
DA:201,3
DA:202,3
DA:203,3
DA:206,2
DA:207,2
DA:208,2
DA:209,2
DA:210,2
DA:211,2
DA:212,2
DA:216,5
DA:217,5
DA:218,3
DA:219,2
DA:220,2
DA:221,1
DA:222,1
DA:223,1
DA:224,1
DA:225,1
DA:226,5
DA:229,4
DA:230,4
DA:231,4
DA:232,4
DA:233,4
DA:236,4
DA:237,4
DA:238,4
DA:239,1
DA:240,3
DA:241,4
DA:246,17
DA:247,17
DA:248,14
DA:249,3
DA:250,3
DA:251,3
DA:252,3
DA:253,3
DA:254,3
DA:255,1
DA:257,2
DA:259,17
DA:262,7
DA:263,7
DA:264,7
DA:265,7
DA:266,7
DA:267,7
DA:268,7
DA:271,5
DA:272,5
DA:273,5
DA:274,5
DA:275,5
DA:276,5
DA:277,5
DA:280,3
DA:281,3
DA:282,2
DA:283,1
DA:284,1
DA:285,1
DA:286,3
DA:300,8
DA:301,8
DA:302,8
DA:303,8
DA:304,8
DA:305,8
DA:306,8
DA:307,8
DA:308,8
DA:309,8
DA:310,8
DA:311,8
DA:312,8
DA:313,8
DA:316,1
DA:317,1
DA:318,1
DA:319,1
DA:320,1
DA:321,1
DA:322,1
DA:323,1
DA:326,1
DA:327,1
DA:328,1
DA:329,1
DA:330,1
DA:331,1
DA:334,1
DA:335,1
DA:336,1
DA:337,1
DA:338,1
DA:339,1
DA:340,1
DA:341,1
DA:342,1
DA:345,1
DA:346,1
DA:347,1
DA:348,1
DA:349,1
DA:350,1
DA:353,1
DA:354,1
DA:355,1
DA:356,1
DA:357,1
DA:358,1
DA:359,1
DA:362,1
DA:363,1
DA:364,1
DA:365,1
DA:368,1
DA:369,1
DA:370,1
DA:371,1
DA:372,1
DA:373,1
DA:374,1
DA:377,1
DA:378,1
DA:379,1
DA:380,1
DA:381,1
DA:382,1
DA:383,1
DA:386,1
DA:387,1
DA:388,1
DA:389,1
DA:390,1
DA:391,1
DA:394,1
DA:395,1
DA:396,1
DA:397,1
DA:398,1
DA:399,1
DA:400,1
DA:401,1
DA:402,1
DA:403,1
DA:406,1
DA:407,1
DA:408,1
DA:409,1
DA:410,1
DA:413,1
DA:414,1
DA:415,1
DA:416,1
DA:419,1
DA:420,1
DA:421,1
DA:422,1
DA:423,1
DA:424,1
DA:425,1
DA:428,1
DA:429,1
DA:430,1
DA:431,1
DA:432,1
DA:433,1
DA:434,1
DA:437,1
DA:438,1
DA:439,1
DA:440,1
DA:441,1
DA:442,1
DA:443,1
DA:444,1
DA:447,1
DA:448,1
DA:449,1
DA:450,1
DA:451,1
DA:452,1
DA:453,1
DA:456,1
DA:457,1
DA:458,1
DA:459,1
DA:460,1
DA:461,1
DA:462,1
DA:465,1
DA:466,1
DA:467,1
DA:468,1
DA:469,1
DA:470,1
DA:471,1
DA:474,1
DA:475,1
DA:476,1
DA:477,1
DA:478,1
DA:479,1
DA:480,1
DA:483,1
DA:484,1
DA:485,1
DA:486,1
DA:487,1
DA:488,1
DA:491,1
DA:492,1
DA:493,1
DA:494,1
DA:495,1
DA:496,1
DA:499,1
DA:500,1
DA:501,1
DA:502,1
DA:503,1
DA:504,1
DA:507,1
DA:508,1
DA:509,1
DA:510,1
DA:511,1
DA:514,1
DA:515,1
DA:516,1
DA:517,1
DA:518,1
DA:519,1
DA:520,1
DA:521,1
DA:522,1
DA:523,1
DA:524,1
DA:525,1
DA:526,1
DA:527,1
DA:528,1
DA:529,1
DA:530,1
DA:531,1
DA:532,1
DA:533,1
DA:536,1
DA:537,1
DA:538,1
DA:539,1
DA:542,1
DA:543,1
DA:544,1
DA:545,1
DA:546,1
DA:547,1
DA:548,1
DA:549,1
DA:550,1
DA:551,1
DA:552,1
DA:553,1
DA:554,1
DA:555,1
DA:556,1
BRF:0
BRH:0
LF:331
LH:331
end_of_record
SF:C:\src\github\rtreit\qsoripper\src\rust\qsoripper-tui\src\events.rs
FN:47,_RNCNvNtCshsDc5n3nbao_13qsoripper_tui6events14spawn_key_task0B5_
FN:74,_RNCNvNtCshsDc5n3nbao_13qsoripper_tui6events16spawn_clock_task0B5_
FN:94,_RNCNvNtCshsDc5n3nbao_13qsoripper_tui6events17spawn_lookup_task0B5_
FN:45,_RNvNtCshsDc5n3nbao_13qsoripper_tui6events14spawn_key_task
FN:73,_RNvNtCshsDc5n3nbao_13qsoripper_tui6events16spawn_clock_task
FN:89,_RNvNtCshsDc5n3nbao_13qsoripper_tui6events17spawn_lookup_task
FNDA:0,_RNCNvNtCshsDc5n3nbao_13qsoripper_tui6events14spawn_key_task0B5_
FNDA:0,_RNCNvNtCshsDc5n3nbao_13qsoripper_tui6events16spawn_clock_task0B5_
FNDA:0,_RNCNvNtCshsDc5n3nbao_13qsoripper_tui6events17spawn_lookup_task0B5_
FNDA:0,_RNvNtCshsDc5n3nbao_13qsoripper_tui6events14spawn_key_task
FNDA:0,_RNvNtCshsDc5n3nbao_13qsoripper_tui6events16spawn_clock_task
FNDA:0,_RNvNtCshsDc5n3nbao_13qsoripper_tui6events17spawn_lookup_task
FNF:6
FNH:0
DA:45,0
DA:46,0
DA:47,0
DA:48,0
DA:49,0
DA:52,0
DA:53,0
DA:54,0
DA:55,0
DA:56,0
DA:57,0
DA:59,0
DA:60,0
DA:63,0
DA:64,0
DA:65,0
DA:67,0
DA:69,0
DA:70,0
DA:73,0
DA:74,0
DA:75,0
DA:77,0
DA:78,0
DA:79,0
DA:80,0
DA:82,0
DA:83,0
DA:89,0
DA:90,0
DA:91,0
DA:92,0
DA:93,0
DA:94,0
DA:96,0
DA:97,0
DA:98,0
DA:99,0
DA:100,0
DA:101,0
DA:102,0
DA:103,0
DA:104,0
DA:105,0
DA:106,0
DA:107,0
DA:108,0
DA:109,0
DA:110,0
DA:111,0
DA:113,0
DA:114,0
DA:115,0
DA:117,0
DA:118,0
BRF:0
BRH:0
LF:57
LH:0
end_of_record
SF:C:\src\github\rtreit\qsoripper\src\rust\qsoripper-tui\src\form.rs
FN:869,_RNvNtNtCshsDc5n3nbao_13qsoripper_tui4form5testss_19advanced_tab_labels
FN:984,_RNvNtNtCshsDc5n3nbao_13qsoripper_tui4form5testss_22skcc_initialises_empty
FN:893,_RNvNtNtCshsDc5n3nbao_13qsoripper_tui4form5testss_23all_advanced_tabs_count
FN:853,_RNvNtNtCshsDc5n3nbao_13qsoripper_tui4form5testss_25advanced_tab_first_fields
FN:564,_RNvNtNtCshsDc5n3nbao_13qsoripper_tui4form5testss_25next_field_advances_focus
FN:573,_RNvNtNtCshsDc5n3nbao_13qsoripper_tui4form5testss_25next_field_wraps_to_start
FN:542,_RNvNtNtCshsDc5n3nbao_13qsoripper_tui4form5testss_26new_form_starts_on_20m_ssb
FN:624,_RNvNtNtCshsDc5n3nbao_13qsoripper_tui4form5testss_26on_mode_change_sets_am_rst
FN:598,_RNvNtNtCshsDc5n3nbao_13qsoripper_tui4form5testss_26on_mode_change_sets_cw_rst
FN:632,_RNvNtNtCshsDc5n3nbao_13qsoripper_tui4form5testss_26on_mode_change_sets_fm_rst
FN:616,_RNvNtNtCshsDc5n3nbao_13qsoripper_tui4form5testss_27on_mode_change_sets_ft4_rst
FN:607,_RNvNtNtCshsDc5n3nbao_13qsoripper_tui4form5testss_27on_mode_change_sets_ft8_rst
FN:877,_RNvNtNtCshsDc5n3nbao_13qsoripper_tui4form5testss_28advanced_tab_next_cycles_all
FN:885,_RNvNtNtCshsDc5n3nbao_13qsoripper_tui4form5testss_28advanced_tab_prev_cycles_all
FN:845,_RNvNtNtCshsDc5n3nbao_13qsoripper_tui4form5testss_28advanced_tab_shortcut_digits
FN:701,_RNvNtNtCshsDc5n3nbao_13qsoripper_tui4form5testss_31current_field_text_mut_callsign
FN:551,_RNvNtNtCshsDc5n3nbao_13qsoripper_tui4form5testss_31new_form_sets_default_frequency
FN:898,_RNvNtNtCshsDc5n3nbao_13qsoripper_tui4form5testss_31next_advanced_tab_updates_focus
FN:907,_RNvNtNtCshsDc5n3nbao_13qsoripper_tui4form5testss_31prev_advanced_tab_updates_focus
FN:938,_RNvNtNtCshsDc5n3nbao_13qsoripper_tui4form5testss_32current_advanced_fields_main_tab
FN:695,_RNvNtNtCshsDc5n3nbao_13qsoripper_tui4form5testss_33is_cycle_field_false_for_callsign
FN:672,_RNvNtNtCshsDc5n3nbao_13qsoripper_tui4form5testss_34band_str_out_of_bounds_returns_20m
FN:965,_RNvNtNtCshsDc5n3nbao_13qsoripper_tui4form5testss_34current_advanced_fields_awards_tab
FN:679,_RNvNtNtCshsDc5n3nbao_13qsoripper_tui4form5testss_34mode_str_out_of_bounds_returns_ssb
FN:557,_RNvNtNtCshsDc5n3nbao_13qsoripper_tui4form5testss_34new_form_sets_rst_defaults_for_ssb
FN:975,_RNvNtNtCshsDc5n3nbao_13qsoripper_tui4form5testss_34skcc_field_text_mut_returns_buffer
FN:947,_RNvNtNtCshsDc5n3nbao_13qsoripper_tui4form5testss_35current_advanced_fields_contest_tab
FN:582,_RNvNtNtCshsDc5n3nbao_13qsoripper_tui4form5testss_35prev_field_moves_to_last_from_first
FN:956,_RNvNtNtCshsDc5n3nbao_13qsoripper_tui4form5testss_37current_advanced_fields_technical_tab
FN:686,_RNvNtNtCshsDc5n3nbao_13qsoripper_tui4form5testss_37is_cycle_field_true_for_band_and_mode
FN:812,_RNvNtNtCshsDc5n3nbao_13qsoripper_tui4form5testss_37type_select_band_ignores_unknown_char
FN:837,_RNvNtNtCshsDc5n3nbao_13qsoripper_tui4form5testss_37type_select_mode_ignores_unknown_char
FN:712,_RNvNtNtCshsDc5n3nbao_13qsoripper_tui4form5testss_38current_field_text_mut_all_text_fields
FN:820,_RNvNtNtCshsDc5n3nbao_13qsoripper_tui4form5testss_38type_select_mode_selects_by_first_char
FN:590,_RNvNtNtCshsDc5n3nbao_13qsoripper_tui4form5testss_39prev_field_from_second_returns_to_first
FN:916,_RNvNtNtCshsDc5n3nbao_13qsoripper_tui4form5testss_40next_advanced_field_wraps_in_contest_tab
FN:648,_RNvNtNtCshsDc5n3nbao_13qsoripper_tui4form5testss_40on_band_change_updates_frequency_for_40m
FN:796,_RNvNtNtCshsDc5n3nbao_13qsoripper_tui4form5testss_40type_select_band_cycles_through_matching
FN:827,_RNvNtNtCshsDc5n3nbao_13qsoripper_tui4form5testss_40type_select_mode_cycles_through_matching
FN:656,_RNvNtNtCshsDc5n3nbao_13qsoripper_tui4form5testss_41on_band_change_updates_frequency_for_160m
FN:664,_RNvNtNtCshsDc5n3nbao_13qsoripper_tui4form5testss_42on_band_change_out_of_bounds_uses_fallback
FN:787,_RNvNtNtCshsDc5n3nbao_13qsoripper_tui4form5testss_44current_field_text_mut_none_for_cycle_fields
FN:928,_RNvNtNtCshsDc5n3nbao_13qsoripper_tui4form5testss_44prev_advanced_field_from_first_wraps_to_last
FN:861,_RNvNtNtCshsDc5n3nbao_13qsoripper_tui4form5testss_46advanced_tab_fields_consistent_with_adv_slices
FN:640,_RNvNtNtCshsDc5n3nbao_13qsoripper_tui4form5testss_48on_mode_change_out_of_bounds_defaults_to_ssb_rst
FN:486,_RNCNCNvMs0_NtCshsDc5n3nbao_13qsoripper_tui4formNtB9_7LogForm16type_select_band00Bb_
FN:508,_RNCNCNvMs0_NtCshsDc5n3nbao_13qsoripper_tui4formNtB9_7LogForm16type_select_mode00Bb_
FN:331,_RNCNvMs0_NtCshsDc5n3nbao_13qsoripper_tui4formNtB7_7LogForm10next_field0B9_
FN:344,_RNCNvMs0_NtCshsDc5n3nbao_13qsoripper_tui4formNtB7_7LogForm10prev_field0B9_
FN:486,_RNCNvMs0_NtCshsDc5n3nbao_13qsoripper_tui4formNtB7_7LogForm16type_select_band0B9_
FN:492,_RNCNvMs0_NtCshsDc5n3nbao_13qsoripper_tui4formNtB7_7LogForm16type_select_bands0_0B9_
FN:493,_RNCNvMs0_NtCshsDc5n3nbao_13qsoripper_tui4formNtB7_7LogForm16type_select_bands1_0B9_
FN:508,_RNCNvMs0_NtCshsDc5n3nbao_13qsoripper_tui4formNtB7_7LogForm16type_select_mode0B9_
FN:514,_RNCNvMs0_NtCshsDc5n3nbao_13qsoripper_tui4formNtB7_7LogForm16type_select_modes0_0B9_
FN:515,_RNCNvMs0_NtCshsDc5n3nbao_13qsoripper_tui4formNtB7_7LogForm16type_select_modes1_0B9_
FN:368,_RNCNvMs0_NtCshsDc5n3nbao_13qsoripper_tui4formNtB7_7LogForm19next_advanced_field0B9_
FN:379,_RNCNvMs0_NtCshsDc5n3nbao_13qsoripper_tui4formNtB7_7LogForm19prev_advanced_field0B9_
FN:281,_RNvXs_NtCshsDc5n3nbao_13qsoripper_tui4formNtB4_7LogFormNtNtCs5cb5cxfFw7H_4core7default7Default7default
FN:626,_RNCNvNtNtCshsDc5n3nbao_13qsoripper_tui4form5testss_26on_mode_change_sets_am_rst0B7_
FN:600,_RNCNvNtNtCshsDc5n3nbao_13qsoripper_tui4form5testss_26on_mode_change_sets_cw_rst0B7_
FN:634,_RNCNvNtNtCshsDc5n3nbao_13qsoripper_tui4form5testss_26on_mode_change_sets_fm_rst0B7_
FN:618,_RNCNvNtNtCshsDc5n3nbao_13qsoripper_tui4form5testss_27on_mode_change_sets_ft4_rst0B7_
FN:609,_RNCNvNtNtCshsDc5n3nbao_13qsoripper_tui4form5testss_27on_mode_change_sets_ft8_rst0B7_
FN:716,_RNCNvNtNtCshsDc5n3nbao_13qsoripper_tui4form5testss_38current_field_text_mut_all_text_fields0B7_
FN:719,_RNCNvNtNtCshsDc5n3nbao_13qsoripper_tui4form5testss_38current_field_text_mut_all_text_fieldss0_0B7_
FN:720,_RNCNvNtNtCshsDc5n3nbao_13qsoripper_tui4form5testss_38current_field_text_mut_all_text_fieldss1_0B7_
FN:721,_RNCNvNtNtCshsDc5n3nbao_13qsoripper_tui4form5testss_38current_field_text_mut_all_text_fieldss2_0B7_
FN:722,_RNCNvNtNtCshsDc5n3nbao_13qsoripper_tui4form5testss_38current_field_text_mut_all_text_fieldss3_0B7_
FN:723,_RNCNvNtNtCshsDc5n3nbao_13qsoripper_tui4form5testss_38current_field_text_mut_all_text_fieldss4_0B7_
FN:724,_RNCNvNtNtCshsDc5n3nbao_13qsoripper_tui4form5testss_38current_field_text_mut_all_text_fieldss5_0B7_
FN:725,_RNCNvNtNtCshsDc5n3nbao_13qsoripper_tui4form5testss_38current_field_text_mut_all_text_fieldss6_0B7_
FN:726,_RNCNvNtNtCshsDc5n3nbao_13qsoripper_tui4form5testss_38current_field_text_mut_all_text_fieldss7_0B7_
FN:729,_RNCNvNtNtCshsDc5n3nbao_13qsoripper_tui4form5testss_38current_field_text_mut_all_text_fieldss8_0B7_
FN:733,_RNCNvNtNtCshsDc5n3nbao_13qsoripper_tui4form5testss_38current_field_text_mut_all_text_fieldss9_0B7_
FN:718,_RNCNvNtNtCshsDc5n3nbao_13qsoripper_tui4form5testss_38current_field_text_mut_all_text_fieldss_0B7_
FN:737,_RNCNvNtNtCshsDc5n3nbao_13qsoripper_tui4form5testss_38current_field_text_mut_all_text_fieldssa_0B7_
FN:741,_RNCNvNtNtCshsDc5n3nbao_13qsoripper_tui4form5testss_38current_field_text_mut_all_text_fieldssb_0B7_
FN:745,_RNCNvNtNtCshsDc5n3nbao_13qsoripper_tui4form5testss_38current_field_text_mut_all_text_fieldssc_0B7_
FN:749,_RNCNvNtNtCshsDc5n3nbao_13qsoripper_tui4form5testss_38current_field_text_mut_all_text_fieldssd_0B7_
FN:753,_RNCNvNtNtCshsDc5n3nbao_13qsoripper_tui4form5testss_38current_field_text_mut_all_text_fieldsse_0B7_
FN:755,_RNCNvNtNtCshsDc5n3nbao_13qsoripper_tui4form5testss_38current_field_text_mut_all_text_fieldssf_0B7_
FN:756,_RNCNvNtNtCshsDc5n3nbao_13qsoripper_tui4form5testss_38current_field_text_mut_all_text_fieldssg_0B7_
FN:757,_RNCNvNtNtCshsDc5n3nbao_13qsoripper_tui4form5testss_38current_field_text_mut_all_text_fieldssh_0B7_
FN:760,_RNCNvNtNtCshsDc5n3nbao_13qsoripper_tui4form5testss_38current_field_text_mut_all_text_fieldssi_0B7_
FN:764,_RNCNvNtNtCshsDc5n3nbao_13qsoripper_tui4form5testss_38current_field_text_mut_all_text_fieldssj_0B7_
FN:768,_RNCNvNtNtCshsDc5n3nbao_13qsoripper_tui4form5testss_38current_field_text_mut_all_text_fieldssk_0B7_
FN:772,_RNCNvNtNtCshsDc5n3nbao_13qsoripper_tui4form5testss_38current_field_text_mut_all_text_fieldssl_0B7_
FN:774,_RNCNvNtNtCshsDc5n3nbao_13qsoripper_tui4form5testss_38current_field_text_mut_all_text_fieldssm_0B7_
FN:650,_RNCNvNtNtCshsDc5n3nbao_13qsoripper_tui4form5testss_40on_band_change_updates_frequency_for_40m0B7_
FN:798,_RNCNvNtNtCshsDc5n3nbao_13qsoripper_tui4form5testss_40type_select_band_cycles_through_matching0B7_
FN:87,_RNvMNtCshsDc5n3nbao_13qsoripper_tui4formNtB2_11AdvancedTab11first_field
FN:77,_RNvMNtCshsDc5n3nbao_13qsoripper_tui4formNtB2_11AdvancedTab14shortcut_digit
FN:48,_RNvMNtCshsDc5n3nbao_13qsoripper_tui4formNtB2_11AdvancedTab4next
FN:57,_RNvMNtCshsDc5n3nbao_13qsoripper_tui4formNtB2_11AdvancedTab4prev
FN:39,_RNvMNtCshsDc5n3nbao_13qsoripper_tui4formNtB2_11AdvancedTab5label
FN:67,_RNvMNtCshsDc5n3nbao_13qsoripper_tui4formNtB2_11AdvancedTab6fields
FN:328,_RNvMs0_NtCshsDc5n3nbao_13qsoripper_tui4formNtB5_7LogForm10next_field
FN:341,_RNvMs0_NtCshsDc5n3nbao_13qsoripper_tui4formNtB5_7LogForm10prev_field
FN:474,_RNvMs0_NtCshsDc5n3nbao_13qsoripper_tui4formNtB5_7LogForm14is_cycle_field
FN:412,_RNvMs0_NtCshsDc5n3nbao_13qsoripper_tui4formNtB5_7LogForm14on_band_change
FN:422,_RNvMs0_NtCshsDc5n3nbao_13qsoripper_tui4formNtB5_7LogForm14on_mode_change
FN:481,_RNvMs0_NtCshsDc5n3nbao_13qsoripper_tui4formNtB5_7LogForm16type_select_band
FN:503,_RNvMs0_NtCshsDc5n3nbao_13qsoripper_tui4formNtB5_7LogForm16type_select_mode
FN:390,_RNvMs0_NtCshsDc5n3nbao_13qsoripper_tui4formNtB5_7LogForm17next_advanced_tab
FN:401,_RNvMs0_NtCshsDc5n3nbao_13qsoripper_tui4formNtB5_7LogForm17prev_advanced_tab
FN:366,_RNvMs0_NtCshsDc5n3nbao_13qsoripper_tui4formNtB5_7LogForm19next_advanced_field
FN:377,_RNvMs0_NtCshsDc5n3nbao_13qsoripper_tui4formNtB5_7LogForm19prev_advanced_field
FN:431,_RNvMs0_NtCshsDc5n3nbao_13qsoripper_tui4formNtB5_7LogForm22current_field_text_mut
FN:356,_RNvMs0_NtCshsDc5n3nbao_13qsoripper_tui4formNtB5_7LogForm23current_advanced_fields
FN:288,_RNvMs0_NtCshsDc5n3nbao_13qsoripper_tui4formNtB5_7LogForm3new
FN:464,_RNvMs0_NtCshsDc5n3nbao_13qsoripper_tui4formNtB5_7LogForm8band_str
FN:469,_RNvMs0_NtCshsDc5n3nbao_13qsoripper_tui4formNtB5_7LogForm8mode_str
FN:524,_RNvNtCshsDc5n3nbao_13qsoripper_tui4form20default_rst_for_mode
FNDA:1,_RNvNtNtCshsDc5n3nbao_13qsoripper_tui4form5testss_19advanced_tab_labels
FNDA:1,_RNvNtNtCshsDc5n3nbao_13qsoripper_tui4form5testss_22skcc_initialises_empty
FNDA:1,_RNvNtNtCshsDc5n3nbao_13qsoripper_tui4form5testss_23all_advanced_tabs_count
FNDA:1,_RNvNtNtCshsDc5n3nbao_13qsoripper_tui4form5testss_25advanced_tab_first_fields
FNDA:1,_RNvNtNtCshsDc5n3nbao_13qsoripper_tui4form5testss_25next_field_advances_focus
FNDA:1,_RNvNtNtCshsDc5n3nbao_13qsoripper_tui4form5testss_25next_field_wraps_to_start
FNDA:1,_RNvNtNtCshsDc5n3nbao_13qsoripper_tui4form5testss_26new_form_starts_on_20m_ssb
FNDA:1,_RNvNtNtCshsDc5n3nbao_13qsoripper_tui4form5testss_26on_mode_change_sets_am_rst
FNDA:1,_RNvNtNtCshsDc5n3nbao_13qsoripper_tui4form5testss_26on_mode_change_sets_cw_rst
FNDA:1,_RNvNtNtCshsDc5n3nbao_13qsoripper_tui4form5testss_26on_mode_change_sets_fm_rst
FNDA:1,_RNvNtNtCshsDc5n3nbao_13qsoripper_tui4form5testss_27on_mode_change_sets_ft4_rst
FNDA:1,_RNvNtNtCshsDc5n3nbao_13qsoripper_tui4form5testss_27on_mode_change_sets_ft8_rst
FNDA:1,_RNvNtNtCshsDc5n3nbao_13qsoripper_tui4form5testss_28advanced_tab_next_cycles_all
FNDA:1,_RNvNtNtCshsDc5n3nbao_13qsoripper_tui4form5testss_28advanced_tab_prev_cycles_all
FNDA:1,_RNvNtNtCshsDc5n3nbao_13qsoripper_tui4form5testss_28advanced_tab_shortcut_digits
FNDA:1,_RNvNtNtCshsDc5n3nbao_13qsoripper_tui4form5testss_31current_field_text_mut_callsign
FNDA:1,_RNvNtNtCshsDc5n3nbao_13qsoripper_tui4form5testss_31new_form_sets_default_frequency
FNDA:1,_RNvNtNtCshsDc5n3nbao_13qsoripper_tui4form5testss_31next_advanced_tab_updates_focus
FNDA:1,_RNvNtNtCshsDc5n3nbao_13qsoripper_tui4form5testss_31prev_advanced_tab_updates_focus
FNDA:1,_RNvNtNtCshsDc5n3nbao_13qsoripper_tui4form5testss_32current_advanced_fields_main_tab
FNDA:1,_RNvNtNtCshsDc5n3nbao_13qsoripper_tui4form5testss_33is_cycle_field_false_for_callsign
FNDA:1,_RNvNtNtCshsDc5n3nbao_13qsoripper_tui4form5testss_34band_str_out_of_bounds_returns_20m
FNDA:1,_RNvNtNtCshsDc5n3nbao_13qsoripper_tui4form5testss_34current_advanced_fields_awards_tab
FNDA:1,_RNvNtNtCshsDc5n3nbao_13qsoripper_tui4form5testss_34mode_str_out_of_bounds_returns_ssb
FNDA:1,_RNvNtNtCshsDc5n3nbao_13qsoripper_tui4form5testss_34new_form_sets_rst_defaults_for_ssb
FNDA:1,_RNvNtNtCshsDc5n3nbao_13qsoripper_tui4form5testss_34skcc_field_text_mut_returns_buffer
FNDA:1,_RNvNtNtCshsDc5n3nbao_13qsoripper_tui4form5testss_35current_advanced_fields_contest_tab
FNDA:1,_RNvNtNtCshsDc5n3nbao_13qsoripper_tui4form5testss_35prev_field_moves_to_last_from_first
FNDA:1,_RNvNtNtCshsDc5n3nbao_13qsoripper_tui4form5testss_37current_advanced_fields_technical_tab
FNDA:1,_RNvNtNtCshsDc5n3nbao_13qsoripper_tui4form5testss_37is_cycle_field_true_for_band_and_mode
FNDA:1,_RNvNtNtCshsDc5n3nbao_13qsoripper_tui4form5testss_37type_select_band_ignores_unknown_char
FNDA:1,_RNvNtNtCshsDc5n3nbao_13qsoripper_tui4form5testss_37type_select_mode_ignores_unknown_char
FNDA:1,_RNvNtNtCshsDc5n3nbao_13qsoripper_tui4form5testss_38current_field_text_mut_all_text_fields
FNDA:1,_RNvNtNtCshsDc5n3nbao_13qsoripper_tui4form5testss_38type_select_mode_selects_by_first_char
FNDA:1,_RNvNtNtCshsDc5n3nbao_13qsoripper_tui4form5testss_39prev_field_from_second_returns_to_first
FNDA:1,_RNvNtNtCshsDc5n3nbao_13qsoripper_tui4form5testss_40next_advanced_field_wraps_in_contest_tab
FNDA:1,_RNvNtNtCshsDc5n3nbao_13qsoripper_tui4form5testss_40on_band_change_updates_frequency_for_40m
FNDA:1,_RNvNtNtCshsDc5n3nbao_13qsoripper_tui4form5testss_40type_select_band_cycles_through_matching
FNDA:1,_RNvNtNtCshsDc5n3nbao_13qsoripper_tui4form5testss_40type_select_mode_cycles_through_matching
FNDA:1,_RNvNtNtCshsDc5n3nbao_13qsoripper_tui4form5testss_41on_band_change_updates_frequency_for_160m
FNDA:1,_RNvNtNtCshsDc5n3nbao_13qsoripper_tui4form5testss_42on_band_change_out_of_bounds_uses_fallback
FNDA:1,_RNvNtNtCshsDc5n3nbao_13qsoripper_tui4form5testss_44current_field_text_mut_none_for_cycle_fields
FNDA:1,_RNvNtNtCshsDc5n3nbao_13qsoripper_tui4form5testss_44prev_advanced_field_from_first_wraps_to_last
FNDA:1,_RNvNtNtCshsDc5n3nbao_13qsoripper_tui4form5testss_46advanced_tab_fields_consistent_with_adv_slices
FNDA:1,_RNvNtNtCshsDc5n3nbao_13qsoripper_tui4form5testss_48on_mode_change_out_of_bounds_defaults_to_ssb_rst
FNDA:78,_RNCNCNvMs0_NtCshsDc5n3nbao_13qsoripper_tui4formNtB9_7LogForm16type_select_band00Bb_
FNDA:32,_RNCNCNvMs0_NtCshsDc5n3nbao_13qsoripper_tui4formNtB9_7LogForm16type_select_mode00Bb_
FNDA:81,_RNCNvMs0_NtCshsDc5n3nbao_13qsoripper_tui4formNtB7_7LogForm10next_field0B9_
FNDA:4,_RNCNvMs0_NtCshsDc5n3nbao_13qsoripper_tui4formNtB7_7LogForm10prev_field0B9_
FNDA:78,_RNCNvMs0_NtCshsDc5n3nbao_13qsoripper_tui4formNtB7_7LogForm16type_select_band0B9_
FNDA:15,_RNCNvMs0_NtCshsDc5n3nbao_13qsoripper_tui4formNtB7_7LogForm16type_select_bands0_0B9_
FNDA:5,_RNCNvMs0_NtCshsDc5n3nbao_13qsoripper_tui4formNtB7_7LogForm16type_select_bands1_0B9_
FNDA:32,_RNCNvMs0_NtCshsDc5n3nbao_13qsoripper_tui4formNtB7_7LogForm16type_select_mode0B9_
FNDA:5,_RNCNvMs0_NtCshsDc5n3nbao_13qsoripper_tui4formNtB7_7LogForm16type_select_modes0_0B9_
FNDA:1,_RNCNvMs0_NtCshsDc5n3nbao_13qsoripper_tui4formNtB7_7LogForm16type_select_modes1_0B9_
FNDA:28,_RNCNvMs0_NtCshsDc5n3nbao_13qsoripper_tui4formNtB7_7LogForm19next_advanced_field0B9_
FNDA:1,_RNCNvMs0_NtCshsDc5n3nbao_13qsoripper_tui4formNtB7_7LogForm19prev_advanced_field0B9_
FNDA:0,_RNvXs_NtCshsDc5n3nbao_13qsoripper_tui4formNtB4_7LogFormNtNtCs5cb5cxfFw7H_4core7default7Default7default
FNDA:7,_RNCNvNtNtCshsDc5n3nbao_13qsoripper_tui4form5testss_26on_mode_change_sets_am_rst0B7_
FNDA:2,_RNCNvNtNtCshsDc5n3nbao_13qsoripper_tui4form5testss_26on_mode_change_sets_cw_rst0B7_
FNDA:8,_RNCNvNtNtCshsDc5n3nbao_13qsoripper_tui4form5testss_26on_mode_change_sets_fm_rst0B7_
FNDA:4,_RNCNvNtNtCshsDc5n3nbao_13qsoripper_tui4form5testss_27on_mode_change_sets_ft4_rst0B7_
FNDA:3,_RNCNvNtNtCshsDc5n3nbao_13qsoripper_tui4form5testss_27on_mode_change_sets_ft8_rst0B7_
FNDA:0,_RNCNvNtNtCshsDc5n3nbao_13qsoripper_tui4form5testss_38current_field_text_mut_all_text_fields0B7_
FNDA:0,_RNCNvNtNtCshsDc5n3nbao_13qsoripper_tui4form5testss_38current_field_text_mut_all_text_fieldss0_0B7_
FNDA:0,_RNCNvNtNtCshsDc5n3nbao_13qsoripper_tui4form5testss_38current_field_text_mut_all_text_fieldss1_0B7_
FNDA:0,_RNCNvNtNtCshsDc5n3nbao_13qsoripper_tui4form5testss_38current_field_text_mut_all_text_fieldss2_0B7_
FNDA:0,_RNCNvNtNtCshsDc5n3nbao_13qsoripper_tui4form5testss_38current_field_text_mut_all_text_fieldss3_0B7_
FNDA:0,_RNCNvNtNtCshsDc5n3nbao_13qsoripper_tui4form5testss_38current_field_text_mut_all_text_fieldss4_0B7_
FNDA:0,_RNCNvNtNtCshsDc5n3nbao_13qsoripper_tui4form5testss_38current_field_text_mut_all_text_fieldss5_0B7_
FNDA:0,_RNCNvNtNtCshsDc5n3nbao_13qsoripper_tui4form5testss_38current_field_text_mut_all_text_fieldss6_0B7_
FNDA:0,_RNCNvNtNtCshsDc5n3nbao_13qsoripper_tui4form5testss_38current_field_text_mut_all_text_fieldss7_0B7_
FNDA:0,_RNCNvNtNtCshsDc5n3nbao_13qsoripper_tui4form5testss_38current_field_text_mut_all_text_fieldss8_0B7_
FNDA:0,_RNCNvNtNtCshsDc5n3nbao_13qsoripper_tui4form5testss_38current_field_text_mut_all_text_fieldss9_0B7_
FNDA:0,_RNCNvNtNtCshsDc5n3nbao_13qsoripper_tui4form5testss_38current_field_text_mut_all_text_fieldss_0B7_
FNDA:0,_RNCNvNtNtCshsDc5n3nbao_13qsoripper_tui4form5testss_38current_field_text_mut_all_text_fieldssa_0B7_
FNDA:0,_RNCNvNtNtCshsDc5n3nbao_13qsoripper_tui4form5testss_38current_field_text_mut_all_text_fieldssb_0B7_
FNDA:0,_RNCNvNtNtCshsDc5n3nbao_13qsoripper_tui4form5testss_38current_field_text_mut_all_text_fieldssc_0B7_
FNDA:0,_RNCNvNtNtCshsDc5n3nbao_13qsoripper_tui4form5testss_38current_field_text_mut_all_text_fieldssd_0B7_
FNDA:0,_RNCNvNtNtCshsDc5n3nbao_13qsoripper_tui4form5testss_38current_field_text_mut_all_text_fieldsse_0B7_
FNDA:0,_RNCNvNtNtCshsDc5n3nbao_13qsoripper_tui4form5testss_38current_field_text_mut_all_text_fieldssf_0B7_
FNDA:0,_RNCNvNtNtCshsDc5n3nbao_13qsoripper_tui4form5testss_38current_field_text_mut_all_text_fieldssg_0B7_
FNDA:0,_RNCNvNtNtCshsDc5n3nbao_13qsoripper_tui4form5testss_38current_field_text_mut_all_text_fieldssh_0B7_
FNDA:0,_RNCNvNtNtCshsDc5n3nbao_13qsoripper_tui4form5testss_38current_field_text_mut_all_text_fieldssi_0B7_
FNDA:0,_RNCNvNtNtCshsDc5n3nbao_13qsoripper_tui4form5testss_38current_field_text_mut_all_text_fieldssj_0B7_
FNDA:0,_RNCNvNtNtCshsDc5n3nbao_13qsoripper_tui4form5testss_38current_field_text_mut_all_text_fieldssk_0B7_
FNDA:0,_RNCNvNtNtCshsDc5n3nbao_13qsoripper_tui4form5testss_38current_field_text_mut_all_text_fieldssl_0B7_
FNDA:0,_RNCNvNtNtCshsDc5n3nbao_13qsoripper_tui4form5testss_38current_field_text_mut_all_text_fieldssm_0B7_
FNDA:4,_RNCNvNtNtCshsDc5n3nbao_13qsoripper_tui4form5testss_40on_band_change_updates_frequency_for_40m0B7_
FNDA:1,_RNCNvNtNtCshsDc5n3nbao_13qsoripper_tui4form5testss_40type_select_band_cycles_through_matching0B7_
FNDA:13,_RNvMNtCshsDc5n3nbao_13qsoripper_tui4formNtB2_11AdvancedTab11first_field
FNDA:24,_RNvMNtCshsDc5n3nbao_13qsoripper_tui4formNtB2_11AdvancedTab14shortcut_digit
FNDA:6,_RNvMNtCshsDc5n3nbao_13qsoripper_tui4formNtB2_11AdvancedTab4next
FNDA:6,_RNvMNtCshsDc5n3nbao_13qsoripper_tui4formNtB2_11AdvancedTab4prev
FNDA:24,_RNvMNtCshsDc5n3nbao_13qsoripper_tui4formNtB2_11AdvancedTab5label
FNDA:17,_RNvMNtCshsDc5n3nbao_13qsoripper_tui4formNtB2_11AdvancedTab6fields
FNDA:15,_RNvMs0_NtCshsDc5n3nbao_13qsoripper_tui4formNtB5_7LogForm10next_field
FNDA:3,_RNvMs0_NtCshsDc5n3nbao_13qsoripper_tui4formNtB5_7LogForm10prev_field
FNDA:5,_RNvMs0_NtCshsDc5n3nbao_13qsoripper_tui4formNtB5_7LogForm14is_cycle_field
FNDA:216,_RNvMs0_NtCshsDc5n3nbao_13qsoripper_tui4formNtB5_7LogForm14on_band_change
FNDA:228,_RNvMs0_NtCshsDc5n3nbao_13qsoripper_tui4formNtB5_7LogForm14on_mode_change
FNDA:6,_RNvMs0_NtCshsDc5n3nbao_13qsoripper_tui4formNtB5_7LogForm16type_select_band
FNDA:4,_RNvMs0_NtCshsDc5n3nbao_13qsoripper_tui4formNtB5_7LogForm16type_select_mode
FNDA:2,_RNvMs0_NtCshsDc5n3nbao_13qsoripper_tui4formNtB5_7LogForm17next_advanced_tab
FNDA:2,_RNvMs0_NtCshsDc5n3nbao_13qsoripper_tui4formNtB5_7LogForm17prev_advanced_tab
FNDA:7,_RNvMs0_NtCshsDc5n3nbao_13qsoripper_tui4formNtB5_7LogForm19next_advanced_field
FNDA:1,_RNvMs0_NtCshsDc5n3nbao_13qsoripper_tui4formNtB5_7LogForm19prev_advanced_field
FNDA:35,_RNvMs0_NtCshsDc5n3nbao_13qsoripper_tui4formNtB5_7LogForm22current_field_text_mut
FNDA:17,_RNvMs0_NtCshsDc5n3nbao_13qsoripper_tui4formNtB5_7LogForm23current_advanced_fields
FNDA:198,_RNvMs0_NtCshsDc5n3nbao_13qsoripper_tui4formNtB5_7LogForm3new
FNDA:24,_RNvMs0_NtCshsDc5n3nbao_13qsoripper_tui4formNtB5_7LogForm8band_str
FNDA:22,_RNvMs0_NtCshsDc5n3nbao_13qsoripper_tui4formNtB5_7LogForm8mode_str
FNDA:228,_RNvNtCshsDc5n3nbao_13qsoripper_tui4form20default_rst_for_mode
FNF:113
FNH:87
DA:39,24
DA:40,24
DA:41,6
DA:42,6
DA:43,6
DA:44,6
DA:46,24
DA:48,6
DA:49,6
DA:50,3
DA:51,1
DA:52,1
DA:53,1
DA:55,6
DA:57,6
DA:58,6
DA:59,3
DA:60,1
DA:61,1
DA:62,1
DA:64,6
DA:67,17
DA:68,17
DA:69,5
DA:70,4
DA:71,4
DA:72,4
DA:74,17
DA:77,24
DA:78,24
DA:79,6
DA:80,6
DA:81,6
DA:82,6
DA:84,24
DA:87,13
DA:88,13
DA:89,13
DA:281,0
DA:282,0
DA:283,0
DA:288,198
DA:289,198
DA:290,198
DA:291,198
DA:292,198
DA:293,198
DA:294,198
DA:295,198
DA:296,198
DA:297,198
DA:298,198
DA:299,198
DA:300,198
DA:301,198
DA:302,198
DA:303,198
DA:304,198
DA:305,198
DA:306,198
DA:307,198
DA:308,198
DA:309,198
DA:310,198
DA:311,198
DA:312,198
DA:313,198
DA:314,198
DA:315,198
DA:316,198
DA:317,198
DA:318,198
DA:319,198
DA:320,198
DA:321,198
DA:322,198
DA:323,198
DA:324,198
DA:325,198
DA:328,15
DA:329,15
DA:330,15
DA:331,81
DA:332,15
DA:333,15
DA:334,15
DA:335,15
DA:336,15
DA:337,15
DA:338,15
DA:341,3
DA:342,3
DA:343,3
DA:344,4
DA:345,3
DA:346,3
DA:347,2
DA:349,1
DA:351,3
DA:352,3
DA:353,3
DA:356,17
DA:357,17
DA:358,1
DA:359,10
DA:360,3
DA:361,3
DA:363,17
DA:366,7
DA:367,7
DA:368,28
DA:369,7
DA:370,7
DA:371,7
DA:372,7
DA:373,7
DA:374,7
DA:377,1
DA:378,1
DA:379,1
DA:380,1
DA:381,1
DA:383,0
DA:385,1
DA:386,1
DA:387,1
DA:390,2
DA:391,2
DA:392,2
DA:393,2
DA:394,2
DA:395,2
DA:396,2
DA:397,2
DA:398,2
DA:401,2
DA:402,2
DA:403,2
DA:404,2
DA:405,2
DA:406,2
DA:407,2
DA:408,2
DA:409,2
DA:412,216
DA:413,216
DA:414,216
DA:415,216
DA:416,216
DA:417,216
DA:418,216
DA:419,216
DA:422,228
DA:423,228
DA:424,228
DA:425,228
DA:426,228
DA:431,35
DA:432,35
DA:433,3
DA:434,1
DA:435,1
DA:436,1
DA:437,1
DA:438,1
DA:439,1
DA:440,1
DA:441,5
DA:442,1
DA:443,1
DA:444,1
DA:445,1
DA:446,1
DA:447,1
DA:448,1
DA:449,1
DA:450,1
DA:451,1
DA:452,1
DA:453,1
DA:454,1
DA:455,1
DA:456,1
DA:457,1
DA:458,2
DA:459,2
DA:461,35
DA:464,24
DA:465,24
DA:466,24
DA:469,22
DA:470,22
DA:471,22
DA:474,5
DA:475,5
DA:476,5
DA:481,6
DA:482,6
DA:483,6
DA:484,6
DA:485,6
DA:486,78
DA:487,6
DA:488,6
DA:489,6
DA:490,1
DA:491,5
DA:492,15
DA:493,5
DA:494,5
DA:495,5
DA:496,5
DA:497,5
DA:498,6
DA:503,4
DA:504,4
DA:505,4
DA:506,4
DA:507,4
DA:508,32
DA:509,4
DA:510,4
DA:511,4
DA:512,1
DA:513,3
DA:514,5
DA:515,3
DA:516,3
DA:517,3
DA:518,3
DA:519,3
DA:520,4
DA:524,228
DA:525,228
DA:526,228
DA:527,8
DA:529,228
DA:542,1
DA:543,1
DA:544,1
DA:545,1
DA:546,1
DA:547,1
DA:548,1
DA:551,1
DA:552,1
DA:553,1
DA:554,1
DA:557,1
DA:558,1
DA:559,1
DA:560,1
DA:561,1
DA:564,1
DA:565,1
DA:566,1
DA:567,1
DA:568,1
DA:569,1
DA:570,1
DA:573,1
DA:574,1
DA:575,12
DA:576,12
DA:577,12
DA:578,1
DA:579,1
DA:582,1
DA:583,1
DA:584,1
DA:585,1
DA:586,1
DA:587,1
DA:590,1
DA:591,1
DA:592,1
DA:593,1
DA:594,1
DA:595,1
DA:598,1
DA:599,1
DA:600,2
DA:601,1
DA:602,1
DA:603,1
DA:604,1
DA:607,1
DA:608,1
DA:609,3
DA:610,1
DA:611,1
DA:612,1
DA:613,1
DA:616,1
DA:617,1
DA:618,4
DA:619,1
DA:620,1
DA:621,1
DA:624,1
DA:625,1
DA:626,7
DA:627,1
DA:628,1
DA:629,1
DA:632,1
DA:633,1
DA:634,8
DA:635,1
DA:636,1
DA:637,1
DA:640,1
DA:641,1
DA:642,1
DA:643,1
DA:644,1
DA:645,1
DA:648,1
DA:649,1
DA:650,4
DA:651,1
DA:652,1
DA:653,1
DA:656,1
DA:657,1
DA:658,1
DA:659,1
DA:660,1
DA:661,1
DA:664,1
DA:665,1
DA:666,1
DA:667,1
DA:668,1
DA:669,1
DA:672,1
DA:673,1
DA:674,1
DA:675,1
DA:676,1
DA:679,1
DA:680,1
DA:681,1
DA:682,1
DA:683,1
DA:686,1
DA:687,1
DA:688,1
DA:689,1
DA:690,1
DA:691,1
DA:692,1
DA:695,1
DA:696,1
DA:697,1
DA:698,1
DA:701,1
DA:702,1
DA:703,1
DA:704,1
DA:705,1
DA:706,1
DA:707,1
DA:708,1
DA:709,1
DA:712,1
DA:713,1
DA:715,1
DA:716,1
DA:718,1
DA:719,1
DA:720,1
DA:721,1
DA:722,1
DA:723,1
DA:724,1
DA:725,1
DA:726,1
DA:728,1
DA:729,1
DA:732,1
DA:733,1
DA:736,1
DA:737,1
DA:740,1
DA:741,1
DA:744,1
DA:745,1
DA:748,1
DA:749,1
DA:752,1
DA:753,1
DA:755,1
DA:756,1
DA:757,1
DA:759,1
DA:760,1
DA:763,1
DA:764,1
DA:767,1
DA:768,1
DA:771,1
DA:772,1
DA:774,1
DA:776,26
DA:777,25
DA:778,25
DA:779,25
DA:780,25
DA:781,0
DA:784,1
DA:787,1
DA:788,1
DA:789,1
DA:790,1
DA:791,1
DA:792,1
DA:793,1
DA:796,1
DA:797,1
DA:798,1
DA:799,1
DA:800,1
DA:801,1
DA:802,1
DA:803,1
DA:804,1
DA:805,1
DA:806,1
DA:807,1
DA:808,1
DA:809,1
DA:812,1
DA:813,1
DA:814,1
DA:815,1
DA:816,1
DA:817,1
DA:820,1
DA:821,1
DA:822,1
DA:823,1
DA:824,1
DA:827,1
DA:828,1
DA:829,1
DA:830,1
DA:831,1
DA:832,1
DA:833,1
DA:834,1
DA:837,1
DA:838,1
DA:839,1
DA:840,1
DA:841,1
DA:842,1
DA:845,1
DA:846,1
DA:847,1
DA:848,1
DA:849,1
DA:850,1
DA:853,1
DA:854,1
DA:855,1
DA:856,1
DA:857,1
DA:858,1
DA:861,1
DA:862,1
DA:863,1
DA:864,1
DA:865,1
DA:866,1
DA:869,1
DA:870,1
DA:871,1
DA:872,1
DA:873,1
DA:874,1
DA:877,1
DA:878,1
DA:879,1
DA:880,1
DA:881,1
DA:882,1
DA:885,1
DA:886,1
DA:887,1
DA:888,1
DA:889,1
DA:890,1
DA:893,1
DA:894,1
DA:895,1
DA:898,1
DA:899,1
DA:900,1
DA:901,1
DA:902,1
DA:903,1
DA:904,1
DA:907,1
DA:908,1
DA:909,1
DA:910,1
DA:911,1
DA:912,1
DA:913,1
DA:916,1
DA:917,1
DA:918,1
DA:919,1
DA:920,1
DA:921,7
DA:922,7
DA:923,7
DA:924,1
DA:925,1
DA:928,1
DA:929,1
DA:930,1
DA:931,1
DA:932,1
DA:933,1
DA:934,1
DA:935,1
DA:938,1
DA:939,1
DA:940,1
DA:941,1
DA:942,1
DA:943,1
DA:944,1
DA:947,1
DA:948,1
DA:949,1
DA:950,1
DA:951,1
DA:952,1
DA:953,1
DA:956,1
DA:957,1
DA:958,1
DA:959,1
DA:960,1
DA:961,1
DA:962,1
DA:965,1
DA:966,1
DA:967,1
DA:968,1
DA:969,1
DA:970,1
DA:971,1
DA:972,1
DA:975,1
DA:976,1
DA:977,1
DA:978,1
DA:979,1
DA:980,1
DA:981,1
DA:984,1
DA:985,1
DA:986,1
DA:987,1
BRF:0
BRH:0
LF:612
LH:582
end_of_record
SF:C:\src\github\rtreit\qsoripper\src\rust\qsoripper-tui\src\grpc.rs
FN:216,_RNCNvNtCshsDc5n3nbao_13qsoripper_tui4grpc17get_space_weather0B5_
FN:214,_RNvNtCshsDc5n3nbao_13qsoripper_tui4grpc17get_space_weather
FN:246,_RNCNCNvNtCshsDc5n3nbao_13qsoripper_tui4grpc10update_qso00B7_
FN:188,_RNCNCNvNtCshsDc5n3nbao_13qsoripper_tui4grpc15lookup_callsign00B7_
FN:118,_RNCNCNvNtCshsDc5n3nbao_13qsoripper_tui4grpc16list_recent_qsos00B7_
FN:137,_RNCNCNvNtCshsDc5n3nbao_13qsoripper_tui4grpc16list_recent_qsos0s0_0B7_
FN:142,_RNCNCNvNtCshsDc5n3nbao_13qsoripper_tui4grpc16list_recent_qsos0s1_0B7_
FN:119,_RNCNCNvNtCshsDc5n3nbao_13qsoripper_tui4grpc16list_recent_qsos0s_0B7_
FN:43,_RNCNCNvNtCshsDc5n3nbao_13qsoripper_tui4grpc7log_qso00B7_
FN:299,_RNCNvNtCshsDc5n3nbao_13qsoripper_tui4grpc10delete_qso0B5_
FN:241,_RNCNvNtCshsDc5n3nbao_13qsoripper_tui4grpc10update_qso0B5_
FN:23,_RNCNvNtCshsDc5n3nbao_13qsoripper_tui4grpc14create_channel0B5_
FN:166,_RNCNvNtCshsDc5n3nbao_13qsoripper_tui4grpc15lookup_callsign0B5_
FN:99,_RNCNvNtCshsDc5n3nbao_13qsoripper_tui4grpc16list_recent_qsos0B5_
FN:38,_RNCNvNtCshsDc5n3nbao_13qsoripper_tui4grpc7log_qso0B5_
FN:346,_RNCNvNtCshsDc5n3nbao_13qsoripper_tui4grpc9parse_rst0B5_
FN:299,_RNvNtCshsDc5n3nbao_13qsoripper_tui4grpc10delete_qso
FN:310,_RNvNtCshsDc5n3nbao_13qsoripper_tui4grpc10mhz_to_khz
FN:323,_RNvNtCshsDc5n3nbao_13qsoripper_tui4grpc10opt_string
FN:236,_RNvNtCshsDc5n3nbao_13qsoripper_tui4grpc10update_qso
FN:372,_RNvNtCshsDc5n3nbao_13qsoripper_tui4grpc12resolve_mode
FN:23,_RNvNtCshsDc5n3nbao_13qsoripper_tui4grpc14create_channel
FN:163,_RNvNtCshsDc5n3nbao_13qsoripper_tui4grpc15lookup_callsign
FN:332,_RNvNtCshsDc5n3nbao_13qsoripper_tui4grpc15parse_timestamp
FN:96,_RNvNtCshsDc5n3nbao_13qsoripper_tui4grpc16list_recent_qsos
FN:34,_RNvNtCshsDc5n3nbao_13qsoripper_tui4grpc7log_qso
FN:342,_RNvNtCshsDc5n3nbao_13qsoripper_tui4grpc9parse_rst
FNDA:0,_RNCNvNtCshsDc5n3nbao_13qsoripper_tui4grpc17get_space_weather0B5_
FNDA:0,_RNvNtCshsDc5n3nbao_13qsoripper_tui4grpc17get_space_weather
FNDA:0,_RNCNCNvNtCshsDc5n3nbao_13qsoripper_tui4grpc10update_qso00B7_
FNDA:0,_RNCNCNvNtCshsDc5n3nbao_13qsoripper_tui4grpc15lookup_callsign00B7_
FNDA:0,_RNCNCNvNtCshsDc5n3nbao_13qsoripper_tui4grpc16list_recent_qsos00B7_
FNDA:0,_RNCNCNvNtCshsDc5n3nbao_13qsoripper_tui4grpc16list_recent_qsos0s0_0B7_
FNDA:0,_RNCNCNvNtCshsDc5n3nbao_13qsoripper_tui4grpc16list_recent_qsos0s1_0B7_
FNDA:0,_RNCNCNvNtCshsDc5n3nbao_13qsoripper_tui4grpc16list_recent_qsos0s_0B7_
FNDA:0,_RNCNCNvNtCshsDc5n3nbao_13qsoripper_tui4grpc7log_qso00B7_
FNDA:0,_RNCNvNtCshsDc5n3nbao_13qsoripper_tui4grpc10delete_qso0B5_
FNDA:0,_RNCNvNtCshsDc5n3nbao_13qsoripper_tui4grpc10update_qso0B5_
FNDA:0,_RNCNvNtCshsDc5n3nbao_13qsoripper_tui4grpc14create_channel0B5_
FNDA:0,_RNCNvNtCshsDc5n3nbao_13qsoripper_tui4grpc15lookup_callsign0B5_
FNDA:0,_RNCNvNtCshsDc5n3nbao_13qsoripper_tui4grpc16list_recent_qsos0B5_
FNDA:0,_RNCNvNtCshsDc5n3nbao_13qsoripper_tui4grpc7log_qso0B5_
FNDA:0,_RNCNvNtCshsDc5n3nbao_13qsoripper_tui4grpc9parse_rst0B5_
FNDA:0,_RNvNtCshsDc5n3nbao_13qsoripper_tui4grpc10delete_qso
FNDA:0,_RNvNtCshsDc5n3nbao_13qsoripper_tui4grpc10mhz_to_khz
FNDA:0,_RNvNtCshsDc5n3nbao_13qsoripper_tui4grpc10opt_string
FNDA:0,_RNvNtCshsDc5n3nbao_13qsoripper_tui4grpc10update_qso
FNDA:0,_RNvNtCshsDc5n3nbao_13qsoripper_tui4grpc12resolve_mode
FNDA:0,_RNvNtCshsDc5n3nbao_13qsoripper_tui4grpc14create_channel
FNDA:0,_RNvNtCshsDc5n3nbao_13qsoripper_tui4grpc15lookup_callsign
FNDA:0,_RNvNtCshsDc5n3nbao_13qsoripper_tui4grpc15parse_timestamp
FNDA:0,_RNvNtCshsDc5n3nbao_13qsoripper_tui4grpc16list_recent_qsos
FNDA:0,_RNvNtCshsDc5n3nbao_13qsoripper_tui4grpc7log_qso
FNDA:0,_RNvNtCshsDc5n3nbao_13qsoripper_tui4grpc9parse_rst
FNF:27
FNH:0
DA:23,0
DA:24,0
DA:25,0
DA:26,0
DA:27,0
DA:28,0
DA:29,0
DA:34,0
DA:35,0
DA:36,0
DA:37,0
DA:38,0
DA:39,0
DA:41,0
DA:42,0
DA:43,0
DA:44,0
DA:46,0
DA:47,0
DA:49,0
DA:51,0
DA:53,0
DA:54,0
DA:56,0
DA:57,0
DA:58,0
DA:59,0
DA:60,0
DA:61,0
DA:62,0
DA:63,0
DA:65,0
DA:67,0
DA:68,0
DA:69,0
DA:70,0
DA:71,0
DA:72,0
DA:73,0
DA:74,0
DA:75,0
DA:76,0
DA:77,0
DA:78,0
DA:79,0
DA:80,0
DA:81,0
DA:82,0
DA:83,0
DA:86,0
DA:87,0
DA:88,0
DA:89,0
DA:91,0
DA:92,0
DA:93,0
DA:96,0
DA:97,0
DA:98,0
DA:99,0
DA:100,0
DA:102,0
DA:103,0
DA:104,0
DA:105,0
DA:106,0
DA:107,0
DA:109,0
DA:110,0
DA:112,0
DA:113,0
DA:115,0
DA:116,0
DA:117,0
DA:118,0
DA:119,0
DA:120,0
DA:122,0
DA:123,0
DA:124,0
DA:125,0
DA:126,0
DA:128,0
DA:129,0
DA:130,0
DA:131,0
DA:132,0
DA:134,0
DA:135,0
DA:136,0
DA:137,0
DA:138,0
DA:139,0
DA:140,0
DA:141,0
DA:142,0
DA:143,0
DA:145,0
DA:146,0
DA:147,0
DA:148,0
DA:149,0
DA:150,0
DA:151,0
DA:152,0
DA:153,0
DA:154,0
DA:155,0
DA:156,0
DA:159,0
DA:160,0
DA:163,0
DA:164,0
DA:165,0
DA:166,0
DA:167,0
DA:169,0
DA:170,0
DA:171,0
DA:172,0
DA:174,0
DA:176,0
DA:177,0
DA:180,0
DA:181,0
DA:182,0
DA:184,0
DA:185,0
DA:188,0
DA:189,0
DA:190,0
DA:191,0
DA:192,0
DA:194,0
DA:196,0
DA:199,0
DA:200,0
DA:201,0
DA:202,0
DA:203,0
DA:204,0
DA:205,0
DA:206,0
DA:208,0
DA:211,0
DA:214,0
DA:215,0
DA:216,0
DA:217,0
DA:219,0
DA:220,0
DA:221,0
DA:222,0
DA:224,0
DA:225,0
DA:228,0
DA:229,0
DA:230,0
DA:231,0
DA:232,0
DA:233,0
DA:236,0
DA:237,0
DA:238,0
DA:239,0
DA:240,0
DA:241,0
DA:242,0
DA:244,0
DA:245,0
DA:246,0
DA:247,0
DA:249,0
DA:250,0
DA:252,0
DA:253,0
DA:255,0
DA:256,0
DA:258,0
DA:259,0
DA:260,0
DA:261,0
DA:262,0
DA:263,0
DA:264,0
DA:265,0
DA:266,0
DA:268,0
DA:270,0
DA:271,0
DA:272,0
DA:273,0
DA:274,0
DA:275,0
DA:276,0
DA:277,0
DA:278,0
DA:279,0
DA:280,0
DA:281,0
DA:282,0
DA:283,0
DA:284,0
DA:285,0
DA:286,0
DA:289,0
DA:290,0
DA:291,0
DA:292,0
DA:293,0
DA:294,0
DA:295,0
DA:296,0
DA:299,0
DA:300,0
DA:301,0
DA:302,0
DA:303,0
DA:304,0
DA:305,0
DA:306,0
DA:307,0
DA:310,0
DA:311,0
DA:318,0
DA:320,0
DA:323,0
DA:324,0
DA:325,0
DA:327,0
DA:329,0
DA:332,0
DA:333,0
DA:334,0
DA:335,0
DA:336,0
DA:337,0
DA:338,0
DA:339,0
DA:342,0
DA:343,0
DA:344,0
DA:345,0
DA:346,0
DA:347,0
DA:348,0
DA:349,0
DA:350,0
DA:351,0
DA:352,0
DA:353,0
DA:354,0
DA:355,0
DA:356,0
DA:357,0
DA:358,0
DA:359,0
DA:360,0
DA:361,0
DA:362,0
DA:363,0
DA:364,0
DA:365,0
DA:366,0
DA:368,0
DA:369,0
DA:372,0
DA:373,0
DA:374,0
DA:375,0
DA:376,0
DA:378,0
BRF:0
BRH:0
LF:287
LH:0
end_of_record
SF:C:\src\github\rtreit\qsoripper\src\rust\qsoripper-tui\src\main.rs
FN:58,_RINvCshsDc5n3nbao_13qsoripper_tui3runpEB2_
FN:61,_RNCINvCshsDc5n3nbao_13qsoripper_tui3runpE0B4_
FN:75,_RNCNCINvCshsDc5n3nbao_13qsoripper_tui3runpE00B6_
FN:95,_RNCNCINvCshsDc5n3nbao_13qsoripper_tui3runpE0s0_0B6_
FN:102,_RNCNCINvCshsDc5n3nbao_13qsoripper_tui3runpE0s1_0B6_
FN:86,_RNCNCINvCshsDc5n3nbao_13qsoripper_tui3runpE0s_0B6_
FN:24,_RNCNvCshsDc5n3nbao_13qsoripper_tui4main0B3_
FN:24,_RNvCshsDc5n3nbao_13qsoripper_tui4main
FN:656,_RNvCshsDc5n3nbao_13qsoripper_tui10cycle_left
FN:222,_RNvCshsDc5n3nbao_13qsoripper_tui10handle_key
FN:679,_RNvCshsDc5n3nbao_13qsoripper_tui11cycle_right
FN:509,_RNvCshsDc5n3nbao_13qsoripper_tui12digit_to_tab
FN:697,_RNvCshsDc5n3nbao_13qsoripper_tui12enrich_names
FN:110,_RNvCshsDc5n3nbao_13qsoripper_tui12handle_event
FN:528,_RNvCshsDc5n3nbao_13qsoripper_tui13jump_to_field
FN:608,_RNvCshsDc5n3nbao_13qsoripper_tui13spawn_log_qso
FN:519,_RNvCshsDc5n3nbao_13qsoripper_tui13switch_to_tab
FN:481,_RNvCshsDc5n3nbao_13qsoripper_tui15handle_char_key
FN:459,_RNvCshsDc5n3nbao_13qsoripper_tui16spawn_delete_qso
FN:350,_RNvCshsDc5n3nbao_13qsoripper_tui17handle_search_key
FN:563,_RNvCshsDc5n3nbao_13qsoripper_tui18load_qso_into_form
FN:43,_RNvCshsDc5n3nbao_13qsoripper_tui18parse_endpoint_arg
FN:385,_RNvCshsDc5n3nbao_13qsoripper_tui19handle_qso_list_key
FN:719,_RNvCshsDc5n3nbao_13qsoripper_tui19refresh_recent_qsos
FN:437,_RNvCshsDc5n3nbao_13qsoripper_tui25handle_confirm_delete_key
FN:769,_RNvNtCshsDc5n3nbao_13qsoripper_tui5tests10make_watch
FN:756,_RNvNtCshsDc5n3nbao_13qsoripper_tui5tests17make_key_with_mod
FN:765,_RNvNtCshsDc5n3nbao_13qsoripper_tui5tests8make_app
FN:747,_RNvNtCshsDc5n3nbao_13qsoripper_tui5tests8make_key
FN:773,_RNvNtCshsDc5n3nbao_13qsoripper_tui5tests8make_qso
FN:873,_RNvNtCshsDc5n3nbao_13qsoripper_tui5testss_17jump_to_field_qth
FN:803,_RNvNtCshsDc5n3nbao_13qsoripper_tui5testss_18jump_to_field_band
FN:852,_RNvNtCshsDc5n3nbao_13qsoripper_tui5testss_18jump_to_field_date
FN:810,_RNvNtCshsDc5n3nbao_13qsoripper_tui5testss_18jump_to_field_mode
FN:859,_RNvNtCshsDc5n3nbao_13qsoripper_tui5testss_18jump_to_field_time
FN:838,_RNvNtCshsDc5n3nbao_13qsoripper_tui5testss_19jump_to_field_notes
FN:831,_RNvNtCshsDc5n3nbao_13qsoripper_tui5testss_21jump_to_field_comment
FN:795,_RNvNtCshsDc5n3nbao_13qsoripper_tui5testss_22jump_to_field_callsign
FN:824,_RNvNtCshsDc5n3nbao_13qsoripper_tui5testss_22jump_to_field_rst_rcvd
FN:817,_RNvNtCshsDc5n3nbao_13qsoripper_tui5testss_22jump_to_field_rst_sent
FN:866,_RNvNtCshsDc5n3nbao_13qsoripper_tui5testss_22jump_to_field_time_off
FN:845,_RNvNtCshsDc5n3nbao_13qsoripper_tui5testss_23jump_to_field_frequency
FN:1548,_RNvNtCshsDc5n3nbao_13qsoripper_tui5testss_24handle_key_f1_shows_help
FN:977,_RNvNtCshsDc5n3nbao_13qsoripper_tui5testss_26cycle_left_band_decrements
FN:1013,_RNvNtCshsDc5n3nbao_13qsoripper_tui5testss_26cycle_left_mode_decrements
FN:995,_RNvNtCshsDc5n3nbao_13qsoripper_tui5testss_27cycle_right_band_increments
FN:1533,_RNvNtCshsDc5n3nbao_13qsoripper_tui5testss_27handle_key_ctrl_q_stops_app
FN:1657,_RNvNtCshsDc5n3nbao_13qsoripper_tui5testss_27handle_key_left_cycles_band
FN:789,_RNvNtCshsDc5n3nbao_13qsoripper_tui5testss_27parse_endpoint_arg_defaults
FN:1589,_RNvNtCshsDc5n3nbao_13qsoripper_tui5testss_28handle_key_f4_focuses_search
FN:1668,_RNvNtCshsDc5n3nbao_13qsoripper_tui5testss_28handle_key_right_cycles_band
FN:986,_RNvNtCshsDc5n3nbao_13qsoripper_tui5testss_29cycle_left_band_wraps_to_last
FN:1022,_RNvNtCshsDc5n3nbao_13qsoripper_tui5testss_29cycle_left_mode_wraps_to_last
FN:1289,_RNvNtCshsDc5n3nbao_13qsoripper_tui5testss_29handle_event_tick_updates_utc
FN:1639,_RNvNtCshsDc5n3nbao_13qsoripper_tui5testss_29handle_key_tab_advances_field
FN:1004,_RNvNtCshsDc5n3nbao_13qsoripper_tui5testss_30cycle_right_band_wraps_to_zero
FN:1031,_RNvNtCshsDc5n3nbao_13qsoripper_tui5testss_30cycle_right_mode_wraps_to_zero
FN:1629,_RNvNtCshsDc5n3nbao_13qsoripper_tui5testss_30handle_key_end_deselects_field
FN:1578,_RNvNtCshsDc5n3nbao_13qsoripper_tui5testss_30handle_key_f3_focuses_qso_list
FN:1080,_RNvNtCshsDc5n3nbao_13qsoripper_tui5testss_30handle_search_key_char_appends
FN:906,_RNvNtCshsDc5n3nbao_13qsoripper_tui5testss_30jump_to_tab_1_switches_to_main
FN:1099,_RNvNtCshsDc5n3nbao_13qsoripper_tui5testss_31handle_search_key_tab_unfocuses
FN:1156,_RNvNtCshsDc5n3nbao_13qsoripper_tui5testss_32handle_qso_list_key_f3_unfocuses
FN:1136,_RNvNtCshsDc5n3nbao_13qsoripper_tui5testss_32handle_search_key_f3_enters_list
FN:937,_RNvNtCshsDc5n3nbao_13qsoripper_tui5testss_32jump_to_tab_4_switches_to_awards
FN:1145,_RNvNtCshsDc5n3nbao_13qsoripper_tui5testss_33handle_qso_list_key_esc_unfocuses
FN:917,_RNvNtCshsDc5n3nbao_13qsoripper_tui5testss_33jump_to_tab_2_switches_to_contest
FN:1306,_RNvNtCshsDc5n3nbao_13qsoripper_tui5testss_34handle_event_space_weather_updates
FN:1735,_RNvNtCshsDc5n3nbao_13qsoripper_tui5testss_34handle_key_alt_char_jumps_to_field
FN:1127,_RNvNtCshsDc5n3nbao_13qsoripper_tui5testss_34handle_search_key_down_enters_list
FN:1439,_RNvNtCshsDc5n3nbao_13qsoripper_tui5testss_35handle_event_qso_logged_resets_form
FN:1750,_RNvNtCshsDc5n3nbao_13qsoripper_tui5testss_35handle_key_confirm_delete_n_cancels
FN:1567,_RNvNtCshsDc5n3nbao_13qsoripper_tui5testss_35handle_key_f2_toggles_advanced_view
FN:1599,_RNvNtCshsDc5n3nbao_13qsoripper_tui5testss_35handle_key_f7_resets_qso_start_time
FN:1088,_RNvNtCshsDc5n3nbao_13qsoripper_tui5testss_35handle_search_key_ctrl_char_ignored
FN:947,_RNvNtCshsDc5n3nbao_13qsoripper_tui5testss_35jump_to_field_skcc_opens_awards_tab
FN:927,_RNvNtCshsDc5n3nbao_13qsoripper_tui5testss_35jump_to_tab_3_switches_to_technical
FN:1244,_RNvNtCshsDc5n3nbao_13qsoripper_tui5testss_35load_qso_into_form_populates_fields
FN:1474,_RNvNtCshsDc5n3nbao_13qsoripper_tui5testss_37handle_event_qso_deleted_clears_state
FN:1648,_RNvNtCshsDc5n3nbao_13qsoripper_tui5testss_37handle_key_backtab_goes_to_prev_field
FN:1070,_RNvNtCshsDc5n3nbao_13qsoripper_tui5testss_37handle_search_key_backspace_pops_char
FN:1388,_RNvNtCshsDc5n3nbao_13qsoripper_tui5testss_38handle_event_qso_log_failed_sets_error
FN:1762,_RNvNtCshsDc5n3nbao_13qsoripper_tui5testss_38handle_key_f5_in_advanced_switches_tab
FN:1200,_RNvNtCshsDc5n3nbao_13qsoripper_tui5testss_38handle_qso_list_key_down_clamps_at_max
FN:1711,_RNvNtCshsDc5n3nbao_13qsoripper_tui5testss_39handle_key_backspace_pops_callsign_char
FN:1609,_RNvNtCshsDc5n3nbao_13qsoripper_tui5testss_39handle_key_esc_clears_form_in_log_entry
FN:1223,_RNvNtCshsDc5n3nbao_13qsoripper_tui5testss_39handle_qso_list_key_d_sets_confirm_view
FN:898,_RNvNtCshsDc5n3nbao_13qsoripper_tui5testss_39jump_to_field_unknown_char_does_nothing
FN:957,_RNvNtCshsDc5n3nbao_13qsoripper_tui5testss_40jump_to_field_tx_power_opens_contest_tab
FN:880,_RNvNtCshsDc5n3nbao_13qsoripper_tui5testss_40jump_to_field_worked_name_opens_advanced
FN:1421,_RNvNtCshsDc5n3nbao_13qsoripper_tui5testss_41handle_event_qso_delete_failed_sets_error
FN:1405,_RNvNtCshsDc5n3nbao_13qsoripper_tui5testss_41handle_event_qso_update_failed_sets_error
FN:1493,_RNvNtCshsDc5n3nbao_13qsoripper_tui5testss_41handle_event_recent_qsos_clamps_selection
FN:1040,_RNvNtCshsDc5n3nbao_13qsoripper_tui5testss_42cycle_left_on_non_cycle_field_does_nothing
FN:1457,_RNvNtCshsDc5n3nbao_13qsoripper_tui5testss_42handle_event_qso_updated_clears_editing_id
FN:1058,_RNvNtCshsDc5n3nbao_13qsoripper_tui5testss_42handle_search_key_esc_clears_and_unfocuses
FN:1270,_RNvNtCshsDc5n3nbao_13qsoripper_tui5testss_42load_qso_into_form_unknown_id_does_nothing
FN:1049,_RNvNtCshsDc5n3nbao_13qsoripper_tui5testss_43cycle_right_on_non_cycle_field_does_nothing
FN:1514,_RNvNtCshsDc5n3nbao_13qsoripper_tui5testss_43handle_event_qso_name_enriched_updates_name
FN:1557,_RNvNtCshsDc5n3nbao_13qsoripper_tui5testss_43handle_key_any_in_help_returns_to_log_entry
FN:1774,_RNvNtCshsDc5n3nbao_13qsoripper_tui5testss_43handle_key_f6_in_advanced_switches_tab_back
FN:1165,_RNvNtCshsDc5n3nbao_13qsoripper_tui5testss_43handle_qso_list_key_up_decrements_selection
FN:967,_RNvNtCshsDc5n3nbao_13qsoripper_tui5testss_43jump_to_field_prop_mode_opens_technical_tab
FN:1689,_RNvNtCshsDc5n3nbao_13qsoripper_tui5testss_44handle_key_char_appends_to_comment_lowercase
FN:1211,_RNvNtCshsDc5n3nbao_13qsoripper_tui5testss_44handle_qso_list_key_delete_sets_confirm_view
FN:1177,_RNvNtCshsDc5n3nbao_13qsoripper_tui5testss_44handle_qso_list_key_up_at_zero_stays_at_zero
FN:1379,_RNvNtCshsDc5n3nbao_13qsoripper_tui5testss_45handle_event_lookup_result_none_clears_result
FN:1679,_RNvNtCshsDc5n3nbao_13qsoripper_tui5testss_45handle_key_char_appends_to_callsign_uppercase
FN:1188,_RNvNtCshsDc5n3nbao_13qsoripper_tui5testss_45handle_qso_list_key_down_increments_selection
FN:1327,_RNvNtCshsDc5n3nbao_13qsoripper_tui5testss_46handle_event_lookup_result_populates_empty_qth
FN:1619,_RNvNtCshsDc5n3nbao_13qsoripper_tui5testss_47handle_key_esc_in_advanced_returns_to_log_entry
FN:1699,_RNvNtCshsDc5n3nbao_13qsoripper_tui5testss_48handle_key_char_with_field_selected_clears_first
FN:1234,_RNvNtCshsDc5n3nbao_13qsoripper_tui5testss_48handle_qso_list_key_enter_no_selection_unfocuses
FN:1795,_RNvNtCshsDc5n3nbao_13qsoripper_tui5testss_50handle_key_qso_list_focused_routes_to_list_handler
FN:1785,_RNvNtCshsDc5n3nbao_13qsoripper_tui5testss_50handle_key_search_focused_routes_to_search_handler
FN:1118,_RNvNtCshsDc5n3nbao_13qsoripper_tui5testss_50handle_search_key_enter_no_results_stays_unfocused
FN:1504,_RNvNtCshsDc5n3nbao_13qsoripper_tui5testss_53handle_event_recent_qsos_selection_cleared_when_empty
FN:1722,_RNvNtCshsDc5n3nbao_13qsoripper_tui5testss_53handle_key_backspace_with_field_selected_clears_field
FN:1107,_RNvNtCshsDc5n3nbao_13qsoripper_tui5testss_54handle_search_key_enter_enters_list_when_results_exist
FN:1279,_RNvNtCshsDc5n3nbao_13qsoripper_tui5testss_54load_qso_into_form_switches_from_advanced_to_log_entry
FN:1353,_RNvNtCshsDc5n3nbao_13qsoripper_tui5testss_55handle_event_lookup_result_does_not_override_filled_qth
FN:889,_RNvNtCshsDc5n3nbao_13qsoripper_tui5testss_62jump_to_field_worked_name_stays_advanced_when_already_advanced
FN:396,_RNCNCNvCshsDc5n3nbao_13qsoripper_tui19handle_qso_list_key00B5_
FN:399,_RNCNCNvCshsDc5n3nbao_13qsoripper_tui19handle_qso_list_keys_00B5_
FN:704,_RNCNvCshsDc5n3nbao_13qsoripper_tui12enrich_names0B3_
FN:202,_RNCNvCshsDc5n3nbao_13qsoripper_tui12handle_event0B3_
FN:210,_RNCNvCshsDc5n3nbao_13qsoripper_tui12handle_events0_0B3_
FN:203,_RNCNvCshsDc5n3nbao_13qsoripper_tui12handle_events_0B3_
FN:616,_RNCNvCshsDc5n3nbao_13qsoripper_tui13spawn_log_qso0B3_
FN:624,_RNCNvCshsDc5n3nbao_13qsoripper_tui13spawn_log_qsos_0B3_
FN:463,_RNCNvCshsDc5n3nbao_13qsoripper_tui16spawn_delete_qso0B3_
FN:567,_RNCNvCshsDc5n3nbao_13qsoripper_tui18load_qso_into_form0B3_
FN:583,_RNCNvCshsDc5n3nbao_13qsoripper_tui18load_qso_into_forms0_0B3_
FN:586,_RNCNvCshsDc5n3nbao_13qsoripper_tui18load_qso_into_forms1_0B3_
FN:568,_RNCNvCshsDc5n3nbao_13qsoripper_tui18load_qso_into_forms_0B3_
FN:396,_RNCNvCshsDc5n3nbao_13qsoripper_tui19handle_qso_list_key0B3_
FN:399,_RNCNvCshsDc5n3nbao_13qsoripper_tui19handle_qso_list_keys_0B3_
FN:722,_RNCNvCshsDc5n3nbao_13qsoripper_tui19refresh_recent_qsos0B3_
FN:1548,_RNCNvNtCshsDc5n3nbao_13qsoripper_tui5testss_24handle_key_f1_shows_help0B5_
FN:1533,_RNCNvNtCshsDc5n3nbao_13qsoripper_tui5testss_27handle_key_ctrl_q_stops_app0B5_
FN:1657,_RNCNvNtCshsDc5n3nbao_13qsoripper_tui5testss_27handle_key_left_cycles_band0B5_
FN:1589,_RNCNvNtCshsDc5n3nbao_13qsoripper_tui5testss_28handle_key_f4_focuses_search0B5_
FN:1668,_RNCNvNtCshsDc5n3nbao_13qsoripper_tui5testss_28handle_key_right_cycles_band0B5_
FN:1289,_RNCNvNtCshsDc5n3nbao_13qsoripper_tui5testss_29handle_event_tick_updates_utc0B5_
FN:1639,_RNCNvNtCshsDc5n3nbao_13qsoripper_tui5testss_29handle_key_tab_advances_field0B5_
FN:1629,_RNCNvNtCshsDc5n3nbao_13qsoripper_tui5testss_30handle_key_end_deselects_field0B5_
FN:1578,_RNCNvNtCshsDc5n3nbao_13qsoripper_tui5testss_30handle_key_f3_focuses_qso_list0B5_
FN:1306,_RNCNvNtCshsDc5n3nbao_13qsoripper_tui5testss_34handle_event_space_weather_updates0B5_
FN:1735,_RNCNvNtCshsDc5n3nbao_13qsoripper_tui5testss_34handle_key_alt_char_jumps_to_field0B5_
FN:1439,_RNCNvNtCshsDc5n3nbao_13qsoripper_tui5testss_35handle_event_qso_logged_resets_form0B5_
FN:1750,_RNCNvNtCshsDc5n3nbao_13qsoripper_tui5testss_35handle_key_confirm_delete_n_cancels0B5_
FN:1567,_RNCNvNtCshsDc5n3nbao_13qsoripper_tui5testss_35handle_key_f2_toggles_advanced_view0B5_
FN:1599,_RNCNvNtCshsDc5n3nbao_13qsoripper_tui5testss_35handle_key_f7_resets_qso_start_time0B5_
FN:1474,_RNCNvNtCshsDc5n3nbao_13qsoripper_tui5testss_37handle_event_qso_deleted_clears_state0B5_
FN:1648,_RNCNvNtCshsDc5n3nbao_13qsoripper_tui5testss_37handle_key_backtab_goes_to_prev_field0B5_
FN:1388,_RNCNvNtCshsDc5n3nbao_13qsoripper_tui5testss_38handle_event_qso_log_failed_sets_error0B5_
FN:1762,_RNCNvNtCshsDc5n3nbao_13qsoripper_tui5testss_38handle_key_f5_in_advanced_switches_tab0B5_
FN:1711,_RNCNvNtCshsDc5n3nbao_13qsoripper_tui5testss_39handle_key_backspace_pops_callsign_char0B5_
FN:1609,_RNCNvNtCshsDc5n3nbao_13qsoripper_tui5testss_39handle_key_esc_clears_form_in_log_entry0B5_
FN:1421,_RNCNvNtCshsDc5n3nbao_13qsoripper_tui5testss_41handle_event_qso_delete_failed_sets_error0B5_
FN:1405,_RNCNvNtCshsDc5n3nbao_13qsoripper_tui5testss_41handle_event_qso_update_failed_sets_error0B5_
FN:1493,_RNCNvNtCshsDc5n3nbao_13qsoripper_tui5testss_41handle_event_recent_qsos_clamps_selection0B5_
FN:1457,_RNCNvNtCshsDc5n3nbao_13qsoripper_tui5testss_42handle_event_qso_updated_clears_editing_id0B5_
FN:1514,_RNCNvNtCshsDc5n3nbao_13qsoripper_tui5testss_43handle_event_qso_name_enriched_updates_name0B5_
FN:1557,_RNCNvNtCshsDc5n3nbao_13qsoripper_tui5testss_43handle_key_any_in_help_returns_to_log_entry0B5_
FN:1774,_RNCNvNtCshsDc5n3nbao_13qsoripper_tui5testss_43handle_key_f6_in_advanced_switches_tab_back0B5_
FN:1689,_RNCNvNtCshsDc5n3nbao_13qsoripper_tui5testss_44handle_key_char_appends_to_comment_lowercase0B5_
FN:1379,_RNCNvNtCshsDc5n3nbao_13qsoripper_tui5testss_45handle_event_lookup_result_none_clears_result0B5_
FN:1679,_RNCNvNtCshsDc5n3nbao_13qsoripper_tui5testss_45handle_key_char_appends_to_callsign_uppercase0B5_
FN:1327,_RNCNvNtCshsDc5n3nbao_13qsoripper_tui5testss_46handle_event_lookup_result_populates_empty_qth0B5_
FN:1619,_RNCNvNtCshsDc5n3nbao_13qsoripper_tui5testss_47handle_key_esc_in_advanced_returns_to_log_entry0B5_
FN:1699,_RNCNvNtCshsDc5n3nbao_13qsoripper_tui5testss_48handle_key_char_with_field_selected_clears_first0B5_
FN:1795,_RNCNvNtCshsDc5n3nbao_13qsoripper_tui5testss_50handle_key_qso_list_focused_routes_to_list_handler0B5_
FN:1785,_RNCNvNtCshsDc5n3nbao_13qsoripper_tui5testss_50handle_key_search_focused_routes_to_search_handler0B5_
FN:1504,_RNCNvNtCshsDc5n3nbao_13qsoripper_tui5testss_53handle_event_recent_qsos_selection_cleared_when_empty0B5_
FN:1722,_RNCNvNtCshsDc5n3nbao_13qsoripper_tui5testss_53handle_key_backspace_with_field_selected_clears_field0B5_
FN:1353,_RNCNvNtCshsDc5n3nbao_13qsoripper_tui5testss_55handle_event_lookup_result_does_not_override_filled_qth0B5_
FNDA:0,_RINvCshsDc5n3nbao_13qsoripper_tui3runpEB2_
FNDA:0,_RNCINvCshsDc5n3nbao_13qsoripper_tui3runpE0B4_
FNDA:0,_RNCNCINvCshsDc5n3nbao_13qsoripper_tui3runpE00B6_
FNDA:0,_RNCNCINvCshsDc5n3nbao_13qsoripper_tui3runpE0s0_0B6_
FNDA:0,_RNCNCINvCshsDc5n3nbao_13qsoripper_tui3runpE0s1_0B6_
FNDA:0,_RNCNCINvCshsDc5n3nbao_13qsoripper_tui3runpE0s_0B6_
FNDA:0,_RNCNvCshsDc5n3nbao_13qsoripper_tui4main0B3_
FNDA:0,_RNvCshsDc5n3nbao_13qsoripper_tui4main
FNDA:6,_RNvCshsDc5n3nbao_13qsoripper_tui10cycle_left
FNDA:26,_RNvCshsDc5n3nbao_13qsoripper_tui10handle_key
FNDA:5,_RNvCshsDc5n3nbao_13qsoripper_tui11cycle_right
FNDA:23,_RNvCshsDc5n3nbao_13qsoripper_tui12digit_to_tab
FNDA:1,_RNvCshsDc5n3nbao_13qsoripper_tui12enrich_names
FNDA:14,_RNvCshsDc5n3nbao_13qsoripper_tui12handle_event
FNDA:23,_RNvCshsDc5n3nbao_13qsoripper_tui13jump_to_field
FNDA:0,_RNvCshsDc5n3nbao_13qsoripper_tui13spawn_log_qso
FNDA:9,_RNvCshsDc5n3nbao_13qsoripper_tui13switch_to_tab
FNDA:3,_RNvCshsDc5n3nbao_13qsoripper_tui15handle_char_key
FNDA:0,_RNvCshsDc5n3nbao_13qsoripper_tui16spawn_delete_qso
FNDA:10,_RNvCshsDc5n3nbao_13qsoripper_tui17handle_search_key
FNDA:3,_RNvCshsDc5n3nbao_13qsoripper_tui18load_qso_into_form
FNDA:1,_RNvCshsDc5n3nbao_13qsoripper_tui18parse_endpoint_arg
FNDA:10,_RNvCshsDc5n3nbao_13qsoripper_tui19handle_qso_list_key
FNDA:3,_RNvCshsDc5n3nbao_13qsoripper_tui19refresh_recent_qsos
FNDA:1,_RNvCshsDc5n3nbao_13qsoripper_tui25handle_confirm_delete_key
FNDA:51,_RNvNtCshsDc5n3nbao_13qsoripper_tui5tests10make_watch
FNDA:3,_RNvNtCshsDc5n3nbao_13qsoripper_tui5tests17make_key_with_mod
FNDA:91,_RNvNtCshsDc5n3nbao_13qsoripper_tui5tests8make_app
FNDA:41,_RNvNtCshsDc5n3nbao_13qsoripper_tui5tests8make_key
FNDA:16,_RNvNtCshsDc5n3nbao_13qsoripper_tui5tests8make_qso
FNDA:1,_RNvNtCshsDc5n3nbao_13qsoripper_tui5testss_17jump_to_field_qth
FNDA:1,_RNvNtCshsDc5n3nbao_13qsoripper_tui5testss_18jump_to_field_band
FNDA:1,_RNvNtCshsDc5n3nbao_13qsoripper_tui5testss_18jump_to_field_date
FNDA:1,_RNvNtCshsDc5n3nbao_13qsoripper_tui5testss_18jump_to_field_mode
FNDA:1,_RNvNtCshsDc5n3nbao_13qsoripper_tui5testss_18jump_to_field_time
FNDA:1,_RNvNtCshsDc5n3nbao_13qsoripper_tui5testss_19jump_to_field_notes
FNDA:1,_RNvNtCshsDc5n3nbao_13qsoripper_tui5testss_21jump_to_field_comment
FNDA:1,_RNvNtCshsDc5n3nbao_13qsoripper_tui5testss_22jump_to_field_callsign
FNDA:1,_RNvNtCshsDc5n3nbao_13qsoripper_tui5testss_22jump_to_field_rst_rcvd
FNDA:1,_RNvNtCshsDc5n3nbao_13qsoripper_tui5testss_22jump_to_field_rst_sent
FNDA:1,_RNvNtCshsDc5n3nbao_13qsoripper_tui5testss_22jump_to_field_time_off
FNDA:1,_RNvNtCshsDc5n3nbao_13qsoripper_tui5testss_23jump_to_field_frequency
FNDA:1,_RNvNtCshsDc5n3nbao_13qsoripper_tui5testss_24handle_key_f1_shows_help
FNDA:1,_RNvNtCshsDc5n3nbao_13qsoripper_tui5testss_26cycle_left_band_decrements
FNDA:1,_RNvNtCshsDc5n3nbao_13qsoripper_tui5testss_26cycle_left_mode_decrements
FNDA:1,_RNvNtCshsDc5n3nbao_13qsoripper_tui5testss_27cycle_right_band_increments
FNDA:1,_RNvNtCshsDc5n3nbao_13qsoripper_tui5testss_27handle_key_ctrl_q_stops_app
FNDA:1,_RNvNtCshsDc5n3nbao_13qsoripper_tui5testss_27handle_key_left_cycles_band
FNDA:1,_RNvNtCshsDc5n3nbao_13qsoripper_tui5testss_27parse_endpoint_arg_defaults
FNDA:1,_RNvNtCshsDc5n3nbao_13qsoripper_tui5testss_28handle_key_f4_focuses_search
FNDA:1,_RNvNtCshsDc5n3nbao_13qsoripper_tui5testss_28handle_key_right_cycles_band
FNDA:1,_RNvNtCshsDc5n3nbao_13qsoripper_tui5testss_29cycle_left_band_wraps_to_last
FNDA:1,_RNvNtCshsDc5n3nbao_13qsoripper_tui5testss_29cycle_left_mode_wraps_to_last
FNDA:1,_RNvNtCshsDc5n3nbao_13qsoripper_tui5testss_29handle_event_tick_updates_utc
FNDA:1,_RNvNtCshsDc5n3nbao_13qsoripper_tui5testss_29handle_key_tab_advances_field
FNDA:1,_RNvNtCshsDc5n3nbao_13qsoripper_tui5testss_30cycle_right_band_wraps_to_zero
FNDA:1,_RNvNtCshsDc5n3nbao_13qsoripper_tui5testss_30cycle_right_mode_wraps_to_zero
FNDA:1,_RNvNtCshsDc5n3nbao_13qsoripper_tui5testss_30handle_key_end_deselects_field
FNDA:1,_RNvNtCshsDc5n3nbao_13qsoripper_tui5testss_30handle_key_f3_focuses_qso_list
FNDA:1,_RNvNtCshsDc5n3nbao_13qsoripper_tui5testss_30handle_search_key_char_appends
FNDA:1,_RNvNtCshsDc5n3nbao_13qsoripper_tui5testss_30jump_to_tab_1_switches_to_main
FNDA:1,_RNvNtCshsDc5n3nbao_13qsoripper_tui5testss_31handle_search_key_tab_unfocuses
FNDA:1,_RNvNtCshsDc5n3nbao_13qsoripper_tui5testss_32handle_qso_list_key_f3_unfocuses
FNDA:1,_RNvNtCshsDc5n3nbao_13qsoripper_tui5testss_32handle_search_key_f3_enters_list
FNDA:1,_RNvNtCshsDc5n3nbao_13qsoripper_tui5testss_32jump_to_tab_4_switches_to_awards
FNDA:1,_RNvNtCshsDc5n3nbao_13qsoripper_tui5testss_33handle_qso_list_key_esc_unfocuses
FNDA:1,_RNvNtCshsDc5n3nbao_13qsoripper_tui5testss_33jump_to_tab_2_switches_to_contest
FNDA:1,_RNvNtCshsDc5n3nbao_13qsoripper_tui5testss_34handle_event_space_weather_updates
FNDA:1,_RNvNtCshsDc5n3nbao_13qsoripper_tui5testss_34handle_key_alt_char_jumps_to_field
FNDA:1,_RNvNtCshsDc5n3nbao_13qsoripper_tui5testss_34handle_search_key_down_enters_list
FNDA:1,_RNvNtCshsDc5n3nbao_13qsoripper_tui5testss_35handle_event_qso_logged_resets_form
FNDA:1,_RNvNtCshsDc5n3nbao_13qsoripper_tui5testss_35handle_key_confirm_delete_n_cancels
FNDA:1,_RNvNtCshsDc5n3nbao_13qsoripper_tui5testss_35handle_key_f2_toggles_advanced_view
FNDA:1,_RNvNtCshsDc5n3nbao_13qsoripper_tui5testss_35handle_key_f7_resets_qso_start_time
FNDA:1,_RNvNtCshsDc5n3nbao_13qsoripper_tui5testss_35handle_search_key_ctrl_char_ignored
FNDA:1,_RNvNtCshsDc5n3nbao_13qsoripper_tui5testss_35jump_to_field_skcc_opens_awards_tab
FNDA:1,_RNvNtCshsDc5n3nbao_13qsoripper_tui5testss_35jump_to_tab_3_switches_to_technical
FNDA:1,_RNvNtCshsDc5n3nbao_13qsoripper_tui5testss_35load_qso_into_form_populates_fields
FNDA:1,_RNvNtCshsDc5n3nbao_13qsoripper_tui5testss_37handle_event_qso_deleted_clears_state
FNDA:1,_RNvNtCshsDc5n3nbao_13qsoripper_tui5testss_37handle_key_backtab_goes_to_prev_field
FNDA:1,_RNvNtCshsDc5n3nbao_13qsoripper_tui5testss_37handle_search_key_backspace_pops_char
FNDA:1,_RNvNtCshsDc5n3nbao_13qsoripper_tui5testss_38handle_event_qso_log_failed_sets_error
FNDA:1,_RNvNtCshsDc5n3nbao_13qsoripper_tui5testss_38handle_key_f5_in_advanced_switches_tab
FNDA:1,_RNvNtCshsDc5n3nbao_13qsoripper_tui5testss_38handle_qso_list_key_down_clamps_at_max
FNDA:1,_RNvNtCshsDc5n3nbao_13qsoripper_tui5testss_39handle_key_backspace_pops_callsign_char
FNDA:1,_RNvNtCshsDc5n3nbao_13qsoripper_tui5testss_39handle_key_esc_clears_form_in_log_entry
FNDA:1,_RNvNtCshsDc5n3nbao_13qsoripper_tui5testss_39handle_qso_list_key_d_sets_confirm_view
FNDA:1,_RNvNtCshsDc5n3nbao_13qsoripper_tui5testss_39jump_to_field_unknown_char_does_nothing
FNDA:1,_RNvNtCshsDc5n3nbao_13qsoripper_tui5testss_40jump_to_field_tx_power_opens_contest_tab
FNDA:1,_RNvNtCshsDc5n3nbao_13qsoripper_tui5testss_40jump_to_field_worked_name_opens_advanced
FNDA:1,_RNvNtCshsDc5n3nbao_13qsoripper_tui5testss_41handle_event_qso_delete_failed_sets_error
FNDA:1,_RNvNtCshsDc5n3nbao_13qsoripper_tui5testss_41handle_event_qso_update_failed_sets_error
FNDA:1,_RNvNtCshsDc5n3nbao_13qsoripper_tui5testss_41handle_event_recent_qsos_clamps_selection
FNDA:1,_RNvNtCshsDc5n3nbao_13qsoripper_tui5testss_42cycle_left_on_non_cycle_field_does_nothing
FNDA:1,_RNvNtCshsDc5n3nbao_13qsoripper_tui5testss_42handle_event_qso_updated_clears_editing_id
FNDA:1,_RNvNtCshsDc5n3nbao_13qsoripper_tui5testss_42handle_search_key_esc_clears_and_unfocuses
FNDA:1,_RNvNtCshsDc5n3nbao_13qsoripper_tui5testss_42load_qso_into_form_unknown_id_does_nothing
FNDA:1,_RNvNtCshsDc5n3nbao_13qsoripper_tui5testss_43cycle_right_on_non_cycle_field_does_nothing
FNDA:1,_RNvNtCshsDc5n3nbao_13qsoripper_tui5testss_43handle_event_qso_name_enriched_updates_name
FNDA:1,_RNvNtCshsDc5n3nbao_13qsoripper_tui5testss_43handle_key_any_in_help_returns_to_log_entry
FNDA:1,_RNvNtCshsDc5n3nbao_13qsoripper_tui5testss_43handle_key_f6_in_advanced_switches_tab_back
FNDA:1,_RNvNtCshsDc5n3nbao_13qsoripper_tui5testss_43handle_qso_list_key_up_decrements_selection
FNDA:1,_RNvNtCshsDc5n3nbao_13qsoripper_tui5testss_43jump_to_field_prop_mode_opens_technical_tab
FNDA:1,_RNvNtCshsDc5n3nbao_13qsoripper_tui5testss_44handle_key_char_appends_to_comment_lowercase
FNDA:1,_RNvNtCshsDc5n3nbao_13qsoripper_tui5testss_44handle_qso_list_key_delete_sets_confirm_view
FNDA:1,_RNvNtCshsDc5n3nbao_13qsoripper_tui5testss_44handle_qso_list_key_up_at_zero_stays_at_zero
FNDA:1,_RNvNtCshsDc5n3nbao_13qsoripper_tui5testss_45handle_event_lookup_result_none_clears_result
FNDA:1,_RNvNtCshsDc5n3nbao_13qsoripper_tui5testss_45handle_key_char_appends_to_callsign_uppercase
FNDA:1,_RNvNtCshsDc5n3nbao_13qsoripper_tui5testss_45handle_qso_list_key_down_increments_selection
FNDA:1,_RNvNtCshsDc5n3nbao_13qsoripper_tui5testss_46handle_event_lookup_result_populates_empty_qth
FNDA:1,_RNvNtCshsDc5n3nbao_13qsoripper_tui5testss_47handle_key_esc_in_advanced_returns_to_log_entry
FNDA:1,_RNvNtCshsDc5n3nbao_13qsoripper_tui5testss_48handle_key_char_with_field_selected_clears_first
FNDA:1,_RNvNtCshsDc5n3nbao_13qsoripper_tui5testss_48handle_qso_list_key_enter_no_selection_unfocuses
FNDA:1,_RNvNtCshsDc5n3nbao_13qsoripper_tui5testss_50handle_key_qso_list_focused_routes_to_list_handler
FNDA:1,_RNvNtCshsDc5n3nbao_13qsoripper_tui5testss_50handle_key_search_focused_routes_to_search_handler
FNDA:1,_RNvNtCshsDc5n3nbao_13qsoripper_tui5testss_50handle_search_key_enter_no_results_stays_unfocused
FNDA:1,_RNvNtCshsDc5n3nbao_13qsoripper_tui5testss_53handle_event_recent_qsos_selection_cleared_when_empty
FNDA:1,_RNvNtCshsDc5n3nbao_13qsoripper_tui5testss_53handle_key_backspace_with_field_selected_clears_field
FNDA:1,_RNvNtCshsDc5n3nbao_13qsoripper_tui5testss_54handle_search_key_enter_enters_list_when_results_exist
FNDA:1,_RNvNtCshsDc5n3nbao_13qsoripper_tui5testss_54load_qso_into_form_switches_from_advanced_to_log_entry
FNDA:1,_RNvNtCshsDc5n3nbao_13qsoripper_tui5testss_55handle_event_lookup_result_does_not_override_filled_qth
FNDA:1,_RNvNtCshsDc5n3nbao_13qsoripper_tui5testss_62jump_to_field_worked_name_stays_advanced_when_already_advanced
FNDA:6,_RNCNCNvCshsDc5n3nbao_13qsoripper_tui19handle_qso_list_key00B5_
FNDA:6,_RNCNCNvCshsDc5n3nbao_13qsoripper_tui19handle_qso_list_keys_00B5_
FNDA:0,_RNCNvCshsDc5n3nbao_13qsoripper_tui12enrich_names0B3_
FNDA:2,_RNCNvCshsDc5n3nbao_13qsoripper_tui12handle_event0B3_
FNDA:1,_RNCNvCshsDc5n3nbao_13qsoripper_tui12handle_events0_0B3_
FNDA:2,_RNCNvCshsDc5n3nbao_13qsoripper_tui12handle_events_0B3_
FNDA:0,_RNCNvCshsDc5n3nbao_13qsoripper_tui13spawn_log_qso0B3_
FNDA:0,_RNCNvCshsDc5n3nbao_13qsoripper_tui13spawn_log_qsos_0B3_
FNDA:0,_RNCNvCshsDc5n3nbao_13qsoripper_tui16spawn_delete_qso0B3_
FNDA:2,_RNCNvCshsDc5n3nbao_13qsoripper_tui18load_qso_into_form0B3_
FNDA:10,_RNCNvCshsDc5n3nbao_13qsoripper_tui18load_qso_into_forms0_0B3_
FNDA:3,_RNCNvCshsDc5n3nbao_13qsoripper_tui18load_qso_into_forms1_0B3_
FNDA:2,_RNCNvCshsDc5n3nbao_13qsoripper_tui18load_qso_into_forms_0B3_
FNDA:8,_RNCNvCshsDc5n3nbao_13qsoripper_tui19handle_qso_list_key0B3_
FNDA:8,_RNCNvCshsDc5n3nbao_13qsoripper_tui19handle_qso_list_keys_0B3_
FNDA:0,_RNCNvCshsDc5n3nbao_13qsoripper_tui19refresh_recent_qsos0B3_
FNDA:1,_RNCNvNtCshsDc5n3nbao_13qsoripper_tui5testss_24handle_key_f1_shows_help0B5_
FNDA:1,_RNCNvNtCshsDc5n3nbao_13qsoripper_tui5testss_27handle_key_ctrl_q_stops_app0B5_
FNDA:1,_RNCNvNtCshsDc5n3nbao_13qsoripper_tui5testss_27handle_key_left_cycles_band0B5_
FNDA:1,_RNCNvNtCshsDc5n3nbao_13qsoripper_tui5testss_28handle_key_f4_focuses_search0B5_
FNDA:1,_RNCNvNtCshsDc5n3nbao_13qsoripper_tui5testss_28handle_key_right_cycles_band0B5_
FNDA:1,_RNCNvNtCshsDc5n3nbao_13qsoripper_tui5testss_29handle_event_tick_updates_utc0B5_
FNDA:1,_RNCNvNtCshsDc5n3nbao_13qsoripper_tui5testss_29handle_key_tab_advances_field0B5_
FNDA:1,_RNCNvNtCshsDc5n3nbao_13qsoripper_tui5testss_30handle_key_end_deselects_field0B5_
FNDA:1,_RNCNvNtCshsDc5n3nbao_13qsoripper_tui5testss_30handle_key_f3_focuses_qso_list0B5_
FNDA:1,_RNCNvNtCshsDc5n3nbao_13qsoripper_tui5testss_34handle_event_space_weather_updates0B5_
FNDA:1,_RNCNvNtCshsDc5n3nbao_13qsoripper_tui5testss_34handle_key_alt_char_jumps_to_field0B5_
FNDA:1,_RNCNvNtCshsDc5n3nbao_13qsoripper_tui5testss_35handle_event_qso_logged_resets_form0B5_
FNDA:1,_RNCNvNtCshsDc5n3nbao_13qsoripper_tui5testss_35handle_key_confirm_delete_n_cancels0B5_
FNDA:1,_RNCNvNtCshsDc5n3nbao_13qsoripper_tui5testss_35handle_key_f2_toggles_advanced_view0B5_
FNDA:1,_RNCNvNtCshsDc5n3nbao_13qsoripper_tui5testss_35handle_key_f7_resets_qso_start_time0B5_
FNDA:1,_RNCNvNtCshsDc5n3nbao_13qsoripper_tui5testss_37handle_event_qso_deleted_clears_state0B5_
FNDA:1,_RNCNvNtCshsDc5n3nbao_13qsoripper_tui5testss_37handle_key_backtab_goes_to_prev_field0B5_
FNDA:1,_RNCNvNtCshsDc5n3nbao_13qsoripper_tui5testss_38handle_event_qso_log_failed_sets_error0B5_
FNDA:1,_RNCNvNtCshsDc5n3nbao_13qsoripper_tui5testss_38handle_key_f5_in_advanced_switches_tab0B5_
FNDA:1,_RNCNvNtCshsDc5n3nbao_13qsoripper_tui5testss_39handle_key_backspace_pops_callsign_char0B5_
FNDA:1,_RNCNvNtCshsDc5n3nbao_13qsoripper_tui5testss_39handle_key_esc_clears_form_in_log_entry0B5_
FNDA:1,_RNCNvNtCshsDc5n3nbao_13qsoripper_tui5testss_41handle_event_qso_delete_failed_sets_error0B5_
FNDA:1,_RNCNvNtCshsDc5n3nbao_13qsoripper_tui5testss_41handle_event_qso_update_failed_sets_error0B5_
FNDA:1,_RNCNvNtCshsDc5n3nbao_13qsoripper_tui5testss_41handle_event_recent_qsos_clamps_selection0B5_
FNDA:1,_RNCNvNtCshsDc5n3nbao_13qsoripper_tui5testss_42handle_event_qso_updated_clears_editing_id0B5_
FNDA:1,_RNCNvNtCshsDc5n3nbao_13qsoripper_tui5testss_43handle_event_qso_name_enriched_updates_name0B5_
FNDA:1,_RNCNvNtCshsDc5n3nbao_13qsoripper_tui5testss_43handle_key_any_in_help_returns_to_log_entry0B5_
FNDA:1,_RNCNvNtCshsDc5n3nbao_13qsoripper_tui5testss_43handle_key_f6_in_advanced_switches_tab_back0B5_
FNDA:1,_RNCNvNtCshsDc5n3nbao_13qsoripper_tui5testss_44handle_key_char_appends_to_comment_lowercase0B5_
FNDA:1,_RNCNvNtCshsDc5n3nbao_13qsoripper_tui5testss_45handle_event_lookup_result_none_clears_result0B5_
FNDA:1,_RNCNvNtCshsDc5n3nbao_13qsoripper_tui5testss_45handle_key_char_appends_to_callsign_uppercase0B5_
FNDA:1,_RNCNvNtCshsDc5n3nbao_13qsoripper_tui5testss_46handle_event_lookup_result_populates_empty_qth0B5_
FNDA:1,_RNCNvNtCshsDc5n3nbao_13qsoripper_tui5testss_47handle_key_esc_in_advanced_returns_to_log_entry0B5_
FNDA:1,_RNCNvNtCshsDc5n3nbao_13qsoripper_tui5testss_48handle_key_char_with_field_selected_clears_first0B5_
FNDA:1,_RNCNvNtCshsDc5n3nbao_13qsoripper_tui5testss_50handle_key_qso_list_focused_routes_to_list_handler0B5_
FNDA:1,_RNCNvNtCshsDc5n3nbao_13qsoripper_tui5testss_50handle_key_search_focused_routes_to_search_handler0B5_
FNDA:1,_RNCNvNtCshsDc5n3nbao_13qsoripper_tui5testss_53handle_event_recent_qsos_selection_cleared_when_empty0B5_
FNDA:1,_RNCNvNtCshsDc5n3nbao_13qsoripper_tui5testss_53handle_key_backspace_with_field_selected_clears_field0B5_
FNDA:1,_RNCNvNtCshsDc5n3nbao_13qsoripper_tui5testss_55handle_event_lookup_result_does_not_override_filled_qth0B5_
FNF:177
FNH:162
DA:24,0
DA:25,0
DA:27,0
DA:28,0
DA:29,0
DA:30,0
DA:31,0
DA:33,0
DA:35,0
DA:36,0
DA:37,0
DA:39,0
DA:40,0
DA:43,1
DA:44,1
DA:45,1
DA:46,1
DA:47,2
DA:48,1
DA:49,0
DA:50,0
DA:51,0
DA:52,1
DA:54,1
DA:55,1
DA:58,0
DA:59,0
DA:60,0
DA:61,0
DA:62,0
DA:63,0
DA:65,0
DA:67,0
DA:68,0
DA:69,0
DA:73,0
DA:74,0
DA:75,0
DA:76,0
DA:77,0
DA:78,0
DA:79,0
DA:80,0
DA:81,0
DA:84,0
DA:85,0
DA:86,0
DA:87,0
DA:88,0
DA:89,0
DA:90,0
DA:91,0
DA:92,0
DA:95,0
DA:97,0
DA:98,0
DA:99,0
DA:100,0
DA:101,0
DA:102,0
DA:103,0
DA:106,0
DA:107,0
DA:110,14
DA:111,14
DA:112,14
DA:113,14
DA:114,14
DA:115,14
DA:116,14
DA:117,14
DA:118,0
DA:119,1
DA:120,1
DA:121,1
DA:122,1
DA:123,3
DA:124,3
DA:125,2
DA:126,1
DA:127,1
DA:128,1
DA:129,1
DA:130,2
DA:131,2
DA:132,1
DA:133,1
DA:134,0
DA:135,1
DA:136,3
DA:138,1
DA:139,1
DA:140,1
DA:141,1
DA:142,1
DA:143,1
DA:144,1
DA:145,1
DA:146,1
DA:147,1
DA:148,1
DA:149,1
DA:150,1
DA:151,1
DA:152,1
DA:153,1
DA:154,1
DA:155,1
DA:156,1
DA:157,1
DA:158,1
DA:159,1
DA:160,1
DA:161,1
DA:162,1
DA:163,1
DA:164,1
DA:165,1
DA:166,1
DA:167,1
DA:168,1
DA:169,1
DA:170,1
DA:171,1
DA:172,1
DA:173,1
DA:174,1
DA:175,1
DA:176,1
DA:177,1
DA:178,1
DA:179,1
DA:180,1
DA:181,1
DA:182,1
DA:183,1
DA:184,1
DA:185,2
DA:186,2
DA:188,2
DA:189,2
DA:190,2
DA:191,2
DA:192,1
DA:194,1
DA:196,0
DA:197,0
DA:199,2
DA:200,2
DA:201,2
DA:202,2
DA:203,2
DA:204,2
DA:205,2
DA:206,1
DA:207,1
DA:209,1
DA:210,1
DA:211,1
DA:212,1
DA:215,14
DA:222,26
DA:223,26
DA:224,26
DA:225,26
DA:226,26
DA:227,26
DA:228,26
DA:232,26
DA:234,1
DA:235,1
DA:236,25
DA:238,25
DA:239,1
DA:240,1
DA:241,24
DA:243,24
DA:244,1
DA:245,1
DA:246,23
DA:248,23
DA:249,1
DA:250,1
DA:251,22
DA:253,22
DA:254,1
DA:255,1
DA:256,21
DA:258,0
DA:259,1
DA:260,0
DA:261,1
DA:263,1
DA:264,0
DA:265,1
DA:267,1
DA:268,2
DA:269,1
DA:270,1
DA:271,1
DA:272,1
DA:273,1
DA:274,1
DA:275,1
DA:276,1
DA:277,1
DA:278,1
DA:279,1
DA:280,0
DA:283,1
DA:284,1
DA:285,1
DA:286,1
DA:288,1
DA:289,1
DA:290,1
DA:291,1
DA:292,1
DA:293,1
DA:294,1
DA:295,1
DA:296,1
DA:297,1
DA:298,1
DA:299,1
DA:300,1
DA:301,1
DA:302,0
DA:303,0
DA:304,0
DA:305,0
DA:306,1
DA:307,1
DA:308,1
DA:309,2
DA:310,1
DA:311,1
DA:312,1
DA:313,1
DA:314,1
DA:315,1
DA:316,1
DA:317,1
DA:318,1
DA:319,1
DA:320,1
DA:321,0
DA:323,1
DA:324,1
DA:326,2
DA:327,2
DA:328,1
DA:329,1
DA:330,1
DA:331,1
DA:332,1
DA:333,1
DA:334,1
DA:335,2
DA:336,1
DA:337,1
DA:338,1
DA:339,1
DA:341,4
DA:342,1
DA:343,1
DA:344,3
DA:345,0
DA:347,26
DA:350,10
DA:352,2
DA:353,2
DA:354,2
DA:355,2
DA:356,2
DA:357,2
DA:358,1
DA:359,1
DA:360,1
DA:361,1
DA:363,4
DA:364,4
DA:365,4
DA:366,3
DA:367,3
DA:368,3
DA:370,1
DA:371,1
DA:372,1
DA:373,1
DA:374,2
DA:375,1
DA:376,1
DA:377,1
DA:378,1
DA:379,1
DA:380,1
DA:382,10
DA:385,10
DA:386,10
DA:387,10
DA:388,10
DA:389,10
DA:391,10
DA:392,10
DA:393,10
DA:394,10
DA:395,10
DA:396,10
DA:397,10
DA:398,10
DA:399,10
DA:400,10
DA:402,10
DA:404,2
DA:405,2
DA:406,1
DA:410,2
DA:411,2
DA:412,0
DA:416,1
DA:417,0
DA:418,1
DA:419,1
DA:420,1
DA:423,2
DA:424,2
DA:425,2
DA:426,2
DA:428,3
DA:429,3
DA:430,3
DA:431,3
DA:432,0
DA:434,10
DA:437,1
DA:438,1
DA:439,1
DA:440,1
DA:441,1
DA:442,1
DA:444,1
DA:446,0
DA:447,0
DA:448,0
DA:450,1
DA:451,1
DA:452,1
DA:453,1
DA:454,0
DA:456,1
DA:459,0
DA:460,0
DA:461,0
DA:462,0
DA:463,0
DA:464,0
DA:465,0
DA:466,0
DA:467,0
DA:468,0
DA:469,0
DA:470,0
DA:471,0
DA:473,0
DA:474,0
DA:475,0
DA:477,0
DA:478,0
DA:481,3
DA:482,3
DA:483,3
DA:484,0
DA:485,0
DA:487,3
DA:488,1
DA:489,1
DA:490,1
DA:491,1
DA:492,2
DA:493,3
DA:494,3
DA:495,1
DA:496,2
DA:497,2
DA:498,2
DA:499,0
DA:500,3
DA:501,1
DA:502,1
DA:503,1
DA:504,2
DA:507,3
DA:509,23
DA:510,23
DA:511,1
DA:512,1
DA:513,1
DA:514,1
DA:515,19
DA:517,23
DA:519,9
DA:520,9
DA:521,9
DA:522,9
DA:523,9
DA:524,9
DA:525,9
DA:528,23
DA:529,23
DA:530,4
DA:531,4
DA:532,19
DA:533,19
DA:534,1
DA:535,1
DA:536,1
DA:537,1
DA:538,1
DA:539,1
DA:540,1
DA:541,2
DA:542,1
DA:543,1
DA:544,1
DA:545,1
DA:546,2
DA:547,1
DA:548,1
DA:549,1
DA:550,1
DA:552,18
DA:553,5
DA:554,13
DA:555,18
DA:556,18
DA:557,18
DA:558,23
DA:563,3
DA:564,3
DA:565,3
DA:566,3
DA:567,3
DA:568,3
DA:569,2
DA:570,2
DA:571,2
DA:572,2
DA:573,2
DA:574,2
DA:575,2
DA:576,2
DA:577,2
DA:578,2
DA:579,3
DA:580,1
DA:582,2
DA:583,10
DA:584,2
DA:585,2
DA:586,3
DA:587,2
DA:588,2
DA:589,2
DA:590,2
DA:591,2
DA:592,2
DA:593,2
DA:594,2
DA:595,2
DA:596,2
DA:597,2
DA:598,2
DA:599,2
DA:600,1
DA:601,1
DA:602,2
DA:603,3
DA:608,0
DA:609,0
DA:610,0
DA:611,0
DA:612,0
DA:613,0
DA:614,0
DA:615,0
DA:616,0
DA:617,0
DA:618,0
DA:619,0
DA:620,0
DA:621,0
DA:622,0
DA:623,0
DA:624,0
DA:625,0
DA:626,0
DA:627,0
DA:628,0
DA:629,0
DA:630,0
DA:631,0
DA:632,0
DA:633,0
DA:634,0
DA:635,0
DA:638,0
DA:639,0
DA:640,0
DA:641,0
DA:642,0
DA:643,0
DA:644,0
DA:648,0
DA:649,0
DA:650,0
DA:652,0
DA:653,0
DA:656,6
DA:657,6
DA:659,3
DA:660,1
DA:662,2
DA:664,3
DA:667,2
DA:668,1
DA:670,1
DA:672,2
DA:674,1
DA:676,6
DA:679,5
DA:680,5
DA:681,3
DA:682,3
DA:683,3
DA:684,3
DA:685,1
DA:686,1
DA:687,1
DA:688,1
DA:689,1
DA:691,5
DA:697,1
DA:698,1
DA:699,1
DA:700,1
DA:701,1
DA:702,1
DA:703,1
DA:704,1
DA:705,0
DA:706,0
DA:708,0
DA:709,0
DA:710,0
DA:711,0
DA:712,0
DA:713,0
DA:715,0
DA:716,1
DA:719,3
DA:720,3
DA:721,3
DA:722,3
DA:723,0
DA:724,0
DA:725,0
DA:726,0
DA:727,0
DA:728,0
DA:729,3
DA:747,41
DA:748,41
DA:749,41
DA:750,41
DA:751,41
DA:752,41
DA:753,41
DA:754,41
DA:756,3
DA:757,3
DA:758,3
DA:759,3
DA:760,3
DA:761,3
DA:762,3
DA:763,3
DA:765,91
DA:766,91
DA:767,91
DA:769,51
DA:770,51
DA:771,51
DA:773,16
DA:774,16
DA:775,16
DA:776,16
DA:777,16
DA:778,16
DA:779,16
DA:780,16
DA:781,16
DA:782,16
DA:783,16
DA:784,16
DA:785,16
DA:786,16
DA:789,1
DA:790,1
DA:791,1
DA:792,1
DA:795,1
DA:796,1
DA:797,1
DA:798,1
DA:799,1
DA:800,1
DA:803,1
DA:804,1
DA:805,1
DA:806,1
DA:807,1
DA:810,1
DA:811,1
DA:812,1
DA:813,1
DA:814,1
DA:817,1
DA:818,1
DA:819,1
DA:820,1
DA:821,1
DA:824,1
DA:825,1
DA:826,1
DA:827,1
DA:828,1
DA:831,1
DA:832,1
DA:833,1
DA:834,1
DA:835,1
DA:838,1
DA:839,1
DA:840,1
DA:841,1
DA:842,1
DA:845,1
DA:846,1
DA:847,1
DA:848,1
DA:849,1
DA:852,1
DA:853,1
DA:854,1
DA:855,1
DA:856,1
DA:859,1
DA:860,1
DA:861,1
DA:862,1
DA:863,1
DA:866,1
DA:867,1
DA:868,1
DA:869,1
DA:870,1
DA:873,1
DA:874,1
DA:875,1
DA:876,1
DA:877,1
DA:880,1
DA:881,1
DA:882,1
DA:883,1
DA:884,1
DA:885,1
DA:886,1
DA:889,1
DA:890,1
DA:891,1
DA:892,1
DA:893,1
DA:894,1
DA:895,1
DA:898,1
DA:899,1
DA:900,1
DA:901,1
DA:902,1
DA:903,1
DA:906,1
DA:907,1
DA:908,1
DA:909,1
DA:910,1
DA:911,1
DA:912,1
DA:913,1
DA:914,1
DA:917,1
DA:918,1
DA:919,1
DA:920,1
DA:921,1
DA:922,1
DA:923,1
DA:924,1
DA:927,1
DA:928,1
DA:929,1
DA:930,1
DA:931,1
DA:932,1
DA:933,1
DA:934,1
DA:937,1
DA:938,1
DA:939,1
DA:940,1
DA:941,1
DA:942,1
DA:943,1
DA:944,1
DA:947,1
DA:948,1
DA:949,1
DA:950,1
DA:951,1
DA:952,1
DA:953,1
DA:954,1
DA:957,1
DA:958,1
DA:959,1
DA:960,1
DA:961,1
DA:962,1
DA:963,1
DA:964,1
DA:967,1
DA:968,1
DA:969,1
DA:970,1
DA:971,1
DA:972,1
DA:973,1
DA:974,1
DA:977,1
DA:978,1
DA:979,1
DA:980,1
DA:981,1
DA:982,1
DA:983,1
DA:986,1
DA:987,1
DA:988,1
DA:989,1
DA:990,1
DA:991,1
DA:992,1
DA:995,1
DA:996,1
DA:997,1
DA:998,1
DA:999,1
DA:1000,1
DA:1001,1
DA:1004,1
DA:1005,1
DA:1006,1
DA:1007,1
DA:1008,1
DA:1009,1
DA:1010,1
DA:1013,1
DA:1014,1
DA:1015,1
DA:1016,1
DA:1017,1
DA:1018,1
DA:1019,1
DA:1022,1
DA:1023,1
DA:1024,1
DA:1025,1
DA:1026,1
DA:1027,1
DA:1028,1
DA:1031,1
DA:1032,1
DA:1033,1
DA:1034,1
DA:1035,1
DA:1036,1
DA:1037,1
DA:1040,1
DA:1041,1
DA:1042,1
DA:1043,1
DA:1044,1
DA:1045,1
DA:1046,1
DA:1049,1
DA:1050,1
DA:1051,1
DA:1052,1
DA:1053,1
DA:1054,1
DA:1055,1
DA:1058,1
DA:1059,1
DA:1060,1
DA:1061,1
DA:1062,1
DA:1063,1
DA:1064,1
DA:1065,1
DA:1066,1
DA:1067,1
DA:1070,1
DA:1071,1
DA:1072,1
DA:1073,1
DA:1074,1
DA:1075,1
DA:1076,1
DA:1077,1
DA:1080,1
DA:1081,1
DA:1082,1
DA:1083,1
DA:1084,1
DA:1085,1
DA:1088,1
DA:1089,1
DA:1090,1
DA:1091,1
DA:1092,1
DA:1093,1
DA:1095,1
DA:1096,1
DA:1099,1
DA:1100,1
DA:1101,1
DA:1102,1
DA:1103,1
DA:1104,1
DA:1107,1
DA:1108,1
DA:1109,1
DA:1110,1
DA:1111,1
DA:1112,1
DA:1113,1
DA:1114,1
DA:1115,1
DA:1118,1
DA:1119,1
DA:1120,1
DA:1121,1
DA:1122,1
DA:1123,1
DA:1124,1
DA:1127,1
DA:1128,1
DA:1129,1
DA:1130,1
DA:1131,1
DA:1132,1
DA:1133,1
DA:1136,1
DA:1137,1
DA:1138,1
DA:1139,1
DA:1140,1
DA:1141,1
DA:1142,1
DA:1145,1
DA:1146,1
DA:1147,1
DA:1148,1
DA:1149,1
DA:1150,1
DA:1151,1
DA:1152,1
DA:1153,1
DA:1156,1
DA:1157,1
DA:1158,1
DA:1159,1
DA:1160,1
DA:1161,1
DA:1162,1
DA:1165,1
DA:1166,1
DA:1167,1
DA:1168,1
DA:1169,1
DA:1170,1
DA:1171,1
DA:1172,1
DA:1173,1
DA:1174,1
DA:1177,1
DA:1178,1
DA:1179,1
DA:1180,1
DA:1181,1
DA:1182,1
DA:1183,1
DA:1184,1
DA:1185,1
DA:1188,1
DA:1189,1
DA:1190,1
DA:1191,1
DA:1192,1
DA:1193,1
DA:1194,1
DA:1195,1
DA:1196,1
DA:1197,1
DA:1200,1
DA:1201,1
DA:1202,1
DA:1203,1
DA:1204,1
DA:1205,1
DA:1206,1
DA:1207,1
DA:1208,1
DA:1211,1
DA:1212,1
DA:1213,1
DA:1214,1
DA:1215,1
DA:1216,1
DA:1217,1
DA:1218,1
DA:1219,1
DA:1220,1
DA:1223,1
DA:1224,1
DA:1225,1
DA:1226,1
DA:1227,1
DA:1228,1
DA:1229,1
DA:1230,1
DA:1231,1
DA:1234,1
DA:1235,1
DA:1236,1
DA:1237,1
DA:1238,1
DA:1239,1
DA:1240,1
DA:1241,1
DA:1244,1
DA:1245,1
DA:1246,1
DA:1247,1
DA:1248,1
DA:1249,1
DA:1250,1
DA:1251,1
DA:1252,1
DA:1253,1
DA:1254,1
DA:1255,1
DA:1256,1
DA:1257,1
DA:1258,1
DA:1259,1
DA:1260,1
DA:1261,1
DA:1262,1
DA:1263,1
DA:1264,1
DA:1265,1
DA:1266,1
DA:1267,1
DA:1270,1
DA:1271,1
DA:1272,1
DA:1273,1
DA:1274,1
DA:1275,1
DA:1276,1
DA:1279,1
DA:1280,1
DA:1281,1
DA:1282,1
DA:1283,1
DA:1284,1
DA:1285,1
DA:1286,1
DA:1289,1
DA:1290,1
DA:1291,1
DA:1292,1
DA:1293,1
DA:1294,1
DA:1295,1
DA:1296,1
DA:1297,1
DA:1298,1
DA:1299,1
DA:1301,1
DA:1302,1
DA:1303,1
DA:1306,1
DA:1308,1
DA:1309,1
DA:1310,1
DA:1311,1
DA:1312,1
DA:1313,1
DA:1314,1
DA:1315,1
DA:1316,1
DA:1317,1
DA:1318,1
DA:1319,1
DA:1320,1
DA:1321,1
DA:1323,1
DA:1324,1
DA:1327,1
DA:1329,1
DA:1330,1
DA:1331,1
DA:1332,1
DA:1333,1
DA:1334,1
DA:1335,1
DA:1336,1
DA:1337,1
DA:1338,1
DA:1339,1
DA:1340,1
DA:1341,1
DA:1342,1
DA:1343,1
DA:1344,1
DA:1345,1
DA:1346,1
DA:1348,1
DA:1349,1
DA:1350,1
DA:1353,1
DA:1355,1
DA:1356,1
DA:1357,1
DA:1358,1
DA:1359,1
DA:1360,1
DA:1361,1
DA:1362,1
DA:1363,1
DA:1364,1
DA:1365,1
DA:1366,1
DA:1367,1
DA:1368,1
DA:1369,1
DA:1370,1
DA:1371,1
DA:1372,1
DA:1373,1
DA:1375,1
DA:1376,1
DA:1379,1
DA:1380,1
DA:1381,1
DA:1382,1
DA:1383,1
DA:1384,1
DA:1385,1
DA:1388,1
DA:1389,1
DA:1390,1
DA:1391,1
DA:1392,1
DA:1393,1
DA:1394,1
DA:1395,1
DA:1396,1
DA:1397,1
DA:1399,1
DA:1400,1
DA:1401,1
DA:1402,1
DA:1405,1
DA:1406,1
DA:1407,1
DA:1408,1
DA:1409,1
DA:1410,1
DA:1411,1
DA:1412,1
DA:1413,1
DA:1414,1
DA:1416,1
DA:1417,1
DA:1418,1
DA:1421,1
DA:1422,1
DA:1423,1
DA:1424,1
DA:1425,1
DA:1426,1
DA:1427,1
DA:1428,1
DA:1429,1
DA:1430,1
DA:1432,1
DA:1433,1
DA:1434,1
DA:1435,1
DA:1436,1
DA:1439,1
DA:1440,1
DA:1441,1
DA:1442,1
DA:1443,1
DA:1444,1
DA:1445,1
DA:1446,1
DA:1447,1
DA:1448,1
DA:1449,1
DA:1451,1
DA:1452,1
DA:1453,1
DA:1454,1
DA:1457,1
DA:1458,1
DA:1459,1
DA:1460,1
DA:1461,1
DA:1462,1
DA:1463,1
DA:1464,1
DA:1465,1
DA:1466,1
DA:1467,1
DA:1469,1
DA:1470,1
DA:1471,1
DA:1474,1
DA:1475,1
DA:1476,1
DA:1477,1
DA:1478,1
DA:1479,1
DA:1480,1
DA:1481,1
DA:1482,1
DA:1483,1
DA:1484,1
DA:1485,1
DA:1487,1
DA:1488,1
DA:1489,1
DA:1490,1
DA:1493,1
DA:1494,1
DA:1495,1
DA:1496,1
DA:1497,1
DA:1498,1
DA:1499,1
DA:1500,1
DA:1501,1
DA:1504,1
DA:1505,1
DA:1506,1
DA:1507,1
DA:1508,1
DA:1509,1
DA:1510,1
DA:1511,1
DA:1514,1
DA:1515,1
DA:1516,1
DA:1517,1
DA:1518,1
DA:1519,1
DA:1520,1
DA:1521,1
DA:1522,1
DA:1523,1
DA:1524,1
DA:1525,1
DA:1526,1
DA:1527,1
DA:1529,1
DA:1530,1
DA:1533,1
DA:1534,1
DA:1535,1
DA:1536,1
DA:1537,1
DA:1538,1
DA:1539,1
DA:1540,1
DA:1541,1
DA:1542,1
DA:1544,1
DA:1545,1
DA:1548,1
DA:1549,1
DA:1550,1
DA:1551,1
DA:1552,1
DA:1553,1
DA:1554,1
DA:1557,1
DA:1558,1
DA:1559,1
DA:1560,1
DA:1561,1
DA:1562,1
DA:1563,1
DA:1564,1
DA:1567,1
DA:1568,1
DA:1569,1
DA:1570,1
DA:1571,1
DA:1572,1
DA:1573,1
DA:1574,1
DA:1575,1
DA:1578,1
DA:1579,1
DA:1580,1
DA:1581,1
DA:1582,1
DA:1583,1
DA:1584,1
DA:1585,1
DA:1586,1
DA:1589,1
DA:1590,1
DA:1591,1
DA:1592,1
DA:1593,1
DA:1594,1
DA:1595,1
DA:1596,1
DA:1599,1
DA:1600,1
DA:1601,1
DA:1602,1
DA:1603,1
DA:1604,1
DA:1605,1
DA:1606,1
DA:1609,1
DA:1610,1
DA:1611,1
DA:1612,1
DA:1613,1
DA:1614,1
DA:1615,1
DA:1616,1
DA:1619,1
DA:1620,1
DA:1621,1
DA:1622,1
DA:1623,1
DA:1624,1
DA:1625,1
DA:1626,1
DA:1629,1
DA:1630,1
DA:1631,1
DA:1632,1
DA:1633,1
DA:1634,1
DA:1635,1
DA:1636,1
DA:1639,1
DA:1640,1
DA:1641,1
DA:1642,1
DA:1643,1
DA:1644,1
DA:1645,1
DA:1648,1
DA:1649,1
DA:1650,1
DA:1651,1
DA:1652,1
DA:1653,1
DA:1654,1
DA:1657,1
DA:1658,1
DA:1659,1
DA:1660,1
DA:1661,1
DA:1662,1
DA:1663,1
DA:1664,1
DA:1665,1
DA:1668,1
DA:1669,1
DA:1670,1
DA:1671,1
DA:1672,1
DA:1673,1
DA:1674,1
DA:1675,1
DA:1676,1
DA:1679,1
DA:1680,1
DA:1681,1
DA:1682,1
DA:1683,1
DA:1684,1
DA:1685,1
DA:1686,1
DA:1689,1
DA:1690,1
DA:1691,1
DA:1692,1
DA:1693,1
DA:1694,1
DA:1695,1
DA:1696,1
DA:1699,1
DA:1700,1
DA:1701,1
DA:1702,1
DA:1703,1
DA:1704,1
DA:1705,1
DA:1706,1
DA:1707,1
DA:1708,1
DA:1711,1
DA:1712,1
DA:1713,1
DA:1714,1
DA:1715,1
DA:1716,1
DA:1717,1
DA:1718,1
DA:1719,1
DA:1722,1
DA:1723,1
DA:1724,1
DA:1725,1
DA:1726,1
DA:1727,1
DA:1728,1
DA:1729,1
DA:1730,1
DA:1731,1
DA:1732,1
DA:1735,1
DA:1736,1
DA:1737,1
DA:1738,1
DA:1739,1
DA:1740,1
DA:1741,1
DA:1742,1
DA:1743,1
DA:1744,1
DA:1746,1
DA:1747,1
DA:1750,1
DA:1751,1
DA:1752,1
DA:1753,1
DA:1754,1
DA:1755,1
DA:1756,1
DA:1757,1
DA:1758,1
DA:1759,1
DA:1762,1
DA:1763,1
DA:1764,1
DA:1765,1
DA:1766,1
DA:1768,1
DA:1769,1
DA:1770,1
DA:1771,1
DA:1774,1
DA:1775,1
DA:1776,1
DA:1777,1
DA:1778,1
DA:1779,1
DA:1781,1
DA:1782,1
DA:1785,1
DA:1786,1
DA:1787,1
DA:1788,1
DA:1789,1
DA:1790,1
DA:1791,1
DA:1792,1
DA:1795,1
DA:1796,1
DA:1797,1
DA:1798,1
DA:1799,1
DA:1800,1
DA:1801,1
DA:1802,1
DA:1803,1
BRF:0
BRH:0
LF:1522
LH:1359
end_of_record
SF:C:\src\github\rtreit\qsoripper\src\rust\qsoripper-tui\src\ui\advanced_form.rs
FN:51,_RNvNtNtCshsDc5n3nbao_13qsoripper_tui2ui13advanced_form14render_tab_bar
FN:80,_RNvNtNtCshsDc5n3nbao_13qsoripper_tui2ui13advanced_form15render_main_tab
FN:417,_RNvNtNtCshsDc5n3nbao_13qsoripper_tui2ui13advanced_form17render_awards_tab
FN:289,_RNvNtNtCshsDc5n3nbao_13qsoripper_tui2ui13advanced_form18render_contest_tab
FN:373,_RNvNtNtCshsDc5n3nbao_13qsoripper_tui2ui13advanced_form20render_technical_tab
FN:514,_RNvNtNtCshsDc5n3nbao_13qsoripper_tui2ui13advanced_form2kl
FN:506,_RNvNtNtCshsDc5n3nbao_13qsoripper_tui2ui13advanced_form5label
FN:16,_RNvNtNtCshsDc5n3nbao_13qsoripper_tui2ui13advanced_form6render
FN:484,_RNvNtNtCshsDc5n3nbao_13qsoripper_tui2ui13advanced_form9adv_field
FN:526,_RNvNtNtCshsDc5n3nbao_13qsoripper_tui2ui13advanced_form9cycle_adv
FNDA:5,_RNvNtNtCshsDc5n3nbao_13qsoripper_tui2ui13advanced_form14render_tab_bar
FNDA:2,_RNvNtNtCshsDc5n3nbao_13qsoripper_tui2ui13advanced_form15render_main_tab
FNDA:1,_RNvNtNtCshsDc5n3nbao_13qsoripper_tui2ui13advanced_form17render_awards_tab
FNDA:1,_RNvNtNtCshsDc5n3nbao_13qsoripper_tui2ui13advanced_form18render_contest_tab
FNDA:1,_RNvNtNtCshsDc5n3nbao_13qsoripper_tui2ui13advanced_form20render_technical_tab
FNDA:29,_RNvNtNtCshsDc5n3nbao_13qsoripper_tui2ui13advanced_form2kl
FNDA:12,_RNvNtNtCshsDc5n3nbao_13qsoripper_tui2ui13advanced_form5label
FNDA:5,_RNvNtNtCshsDc5n3nbao_13qsoripper_tui2ui13advanced_form6render
FNDA:37,_RNvNtNtCshsDc5n3nbao_13qsoripper_tui2ui13advanced_form9adv_field
FNDA:4,_RNvNtNtCshsDc5n3nbao_13qsoripper_tui2ui13advanced_form9cycle_adv
FNF:10
FNH:10
DA:16,5
DA:17,5
DA:18,5
DA:19,5
DA:21,5
DA:22,5
DA:24,5
DA:25,0
DA:26,5
DA:28,5
DA:29,5
DA:30,5
DA:31,5
DA:32,5
DA:33,5
DA:35,5
DA:36,5
DA:38,5
DA:40,5
DA:41,5
DA:43,5
DA:44,2
DA:45,1
DA:46,1
DA:47,1
DA:49,5
DA:51,5
DA:52,5
DA:53,25
DA:54,20
DA:55,20
DA:56,20
DA:57,20
DA:58,5
DA:59,5
DA:60,5
DA:61,5
DA:62,5
DA:63,5
DA:64,5
DA:65,15
DA:66,15
DA:67,15
DA:68,15
DA:69,15
DA:70,15
DA:71,20
DA:73,5
DA:74,5
DA:80,2
DA:81,2
DA:82,0
DA:83,2
DA:84,2
DA:85,2
DA:86,2
DA:87,2
DA:88,2
DA:89,2
DA:90,2
DA:91,2
DA:92,2
DA:93,2
DA:94,2
DA:97,2
DA:98,2
DA:99,2
DA:100,2
DA:101,2
DA:102,2
DA:103,2
DA:104,2
DA:105,2
DA:106,2
DA:107,2
DA:108,2
DA:109,2
DA:110,2
DA:111,2
DA:112,2
DA:113,2
DA:114,0
DA:116,2
DA:118,2
DA:119,0
DA:121,2
DA:124,2
DA:125,2
DA:126,2
DA:127,2
DA:128,2
DA:129,2
DA:130,0
DA:132,2
DA:134,2
DA:135,0
DA:137,2
DA:140,2
DA:141,0
DA:144,2
DA:145,2
DA:146,2
DA:147,2
DA:148,2
DA:149,2
DA:150,2
DA:151,2
DA:152,2
DA:153,2
DA:154,2
DA:155,2
DA:156,2
DA:157,2
DA:158,2
DA:159,2
DA:160,2
DA:161,2
DA:162,2
DA:163,2
DA:164,2
DA:165,2
DA:166,2
DA:167,0
DA:170,2
DA:171,2
DA:172,2
DA:173,2
DA:174,2
DA:175,2
DA:176,2
DA:177,2
DA:178,2
DA:179,2
DA:180,2
DA:181,2
DA:182,2
DA:183,2
DA:184,2
DA:185,2
DA:186,2
DA:187,2
DA:188,2
DA:189,2
DA:190,2
DA:191,2
DA:192,2
DA:193,0
DA:196,2
DA:197,2
DA:198,2
DA:199,2
DA:200,2
DA:201,2
DA:202,2
DA:203,2
DA:204,2
DA:205,2
DA:206,2
DA:207,2
DA:208,2
DA:209,2
DA:210,2
DA:211,2
DA:212,2
DA:213,2
DA:214,2
DA:215,2
DA:216,2
DA:217,2
DA:218,2
DA:219,0
DA:222,2
DA:223,2
DA:224,2
DA:225,2
DA:226,2
DA:227,2
DA:228,2
DA:229,2
DA:230,2
DA:231,2
DA:232,2
DA:233,2
DA:234,2
DA:235,2
DA:236,2
DA:237,2
DA:238,2
DA:239,2
DA:240,2
DA:241,2
DA:242,2
DA:243,0
DA:246,2
DA:247,2
DA:248,2
DA:249,2
DA:250,2
DA:251,2
DA:252,2
DA:253,2
DA:255,2
DA:256,2
DA:257,2
DA:258,2
DA:259,0
DA:262,2
DA:263,2
DA:264,2
DA:265,2
DA:266,2
DA:267,2
DA:268,2
DA:269,2
DA:271,2
DA:272,2
DA:273,2
DA:274,2
DA:275,0
DA:278,2
DA:279,2
DA:280,2
DA:281,2
DA:282,2
DA:283,2
DA:284,2
DA:285,2
DA:286,2
DA:287,2
DA:289,1
DA:290,1
DA:291,1
DA:292,1
DA:293,1
DA:294,1
DA:295,1
DA:296,1
DA:297,1
DA:298,1
DA:300,1
DA:302,1
DA:303,1
DA:304,1
DA:305,1
DA:306,1
DA:307,1
DA:308,1
DA:309,1
DA:310,1
DA:311,1
DA:312,1
DA:313,1
DA:314,1
DA:315,1
DA:316,0
DA:317,1
DA:318,1
DA:319,1
DA:320,1
DA:321,1
DA:322,1
DA:323,1
DA:324,1
DA:326,1
DA:328,0
DA:329,1
DA:330,1
DA:331,1
DA:332,1
DA:333,1
DA:334,1
DA:335,1
DA:336,1
DA:337,1
DA:338,1
DA:339,1
DA:340,1
DA:341,1
DA:342,1
DA:344,1
DA:346,0
DA:347,1
DA:348,1
DA:349,1
DA:350,1
DA:351,1
DA:352,1
DA:353,1
DA:354,1
DA:356,1
DA:358,0
DA:359,1
DA:360,1
DA:361,1
DA:362,1
DA:363,1
DA:364,1
DA:365,1
DA:366,1
DA:368,1
DA:370,0
DA:371,1
DA:373,1
DA:374,1
DA:375,1
DA:376,1
DA:377,1
DA:378,1
DA:379,1
DA:380,1
DA:382,1
DA:383,1
DA:384,1
DA:385,1
DA:386,1
DA:387,1
DA:388,1
DA:389,1
DA:390,0
DA:391,1
DA:392,1
DA:393,1
DA:394,1
DA:395,1
DA:396,1
DA:397,1
DA:398,1
DA:400,1
DA:402,0
DA:403,1
DA:404,1
DA:405,1
DA:406,1
DA:407,1
DA:408,1
DA:409,1
DA:410,1
DA:412,1
DA:414,0
DA:415,1
DA:417,1
DA:418,1
DA:419,1
DA:420,1
DA:421,1
DA:422,1
DA:423,1
DA:424,1
DA:425,1
DA:426,1
DA:428,1
DA:430,1
DA:431,1
DA:432,1
DA:433,1
DA:434,1
DA:435,1
DA:436,1
DA:437,1
DA:439,1
DA:441,0
DA:442,1
DA:443,1
DA:444,1
DA:445,1
DA:446,1
DA:447,1
DA:448,1
DA:449,1
DA:451,1
DA:453,0
DA:454,1
DA:455,1
DA:456,1
DA:457,1
DA:458,1
DA:459,1
DA:460,1
DA:461,1
DA:462,1
DA:463,1
DA:464,1
DA:465,1
DA:466,1
DA:467,1
DA:469,1
DA:471,0
DA:472,1
DA:473,1
DA:474,1
DA:475,1
DA:476,1
DA:477,1
DA:478,1
DA:479,1
DA:480,0
DA:481,1
DA:484,37
DA:485,37
DA:486,1
DA:487,1
DA:488,0
DA:490,1
DA:493,36
DA:494,36
DA:495,1
DA:496,35
DA:497,36
DA:498,36
DA:499,0
DA:501,36
DA:504,37
DA:506,12
DA:507,12
DA:508,12
DA:514,29
DA:515,29
DA:516,29
DA:517,29
DA:518,29
DA:519,29
DA:520,29
DA:521,29
DA:522,29
DA:523,29
DA:524,29
DA:526,4
DA:527,4
DA:528,0
DA:530,4
DA:532,4
BRF:0
BRH:0
LF:431
LH:403
end_of_record
SF:C:\src\github\rtreit\qsoripper\src\rust\qsoripper-tui\src\ui\confirm_dialog.rs
FN:18,_RNCNvNtNtCshsDc5n3nbao_13qsoripper_tui2ui14confirm_dialog6render0B7_
FN:21,_RNCNvNtNtCshsDc5n3nbao_13qsoripper_tui2ui14confirm_dialog6renders0_0B7_
FN:20,_RNCNvNtNtCshsDc5n3nbao_13qsoripper_tui2ui14confirm_dialog6renders_0B7_
FN:64,_RNvNtNtCshsDc5n3nbao_13qsoripper_tui2ui14confirm_dialog13centered_rect
FN:14,_RNvNtNtCshsDc5n3nbao_13qsoripper_tui2ui14confirm_dialog6render
FNDA:1,_RNCNvNtNtCshsDc5n3nbao_13qsoripper_tui2ui14confirm_dialog6render0B7_
FNDA:1,_RNCNvNtNtCshsDc5n3nbao_13qsoripper_tui2ui14confirm_dialog6renders0_0B7_
FNDA:1,_RNCNvNtNtCshsDc5n3nbao_13qsoripper_tui2ui14confirm_dialog6renders_0B7_
FNDA:2,_RNvNtNtCshsDc5n3nbao_13qsoripper_tui2ui14confirm_dialog13centered_rect
FNDA:2,_RNvNtNtCshsDc5n3nbao_13qsoripper_tui2ui14confirm_dialog6render
FNF:5
FNH:5
DA:14,2
DA:15,2
DA:16,2
DA:17,2
DA:18,2
DA:19,2
DA:20,1
DA:21,1
DA:24,2
DA:26,2
DA:27,2
DA:28,2
DA:29,2
DA:31,2
DA:32,2
DA:33,2
DA:34,2
DA:35,2
DA:36,2
DA:37,2
DA:38,2
DA:39,2
DA:41,2
DA:43,2
DA:44,2
DA:45,2
DA:47,2
DA:49,2
DA:50,2
DA:52,2
DA:55,2
DA:56,2
DA:57,2
DA:59,2
DA:60,2
DA:61,2
DA:64,2
DA:65,2
DA:66,2
DA:67,2
DA:68,2
DA:69,2
DA:70,2
DA:71,2
DA:73,2
DA:75,2
DA:76,2
DA:77,2
DA:78,2
DA:79,2
DA:80,2
DA:82,2
DA:83,2
BRF:0
BRH:0
LF:54
LH:54
end_of_record
SF:C:\src\github\rtreit\qsoripper\src\rust\qsoripper-tui\src\ui\footer.rs
FN:12,_RNvNtNtCshsDc5n3nbao_13qsoripper_tui2ui6footer6render
FNDA:20,_RNvNtNtCshsDc5n3nbao_13qsoripper_tui2ui6footer6render
FNF:1
FNH:1
DA:12,20
DA:13,20
DA:14,20
DA:15,20
DA:16,20
DA:17,20
DA:18,20
DA:19,20
DA:20,20
DA:21,20
DA:22,20
DA:23,20
DA:24,20
DA:26,20
DA:27,200
DA:28,200
DA:29,180
DA:30,180
DA:31,200
DA:32,200
DA:33,200
DA:34,200
DA:35,200
DA:36,200
DA:38,200
DA:39,200
DA:42,20
DA:43,20
BRF:0
BRH:0
LF:28
LH:28
end_of_record
SF:C:\src\github\rtreit\qsoripper\src\rust\qsoripper-tui\src\ui\header.rs
FN:93,_RNCNvNtNtCshsDc5n3nbao_13qsoripper_tui2ui6header18space_weather_line0B7_
FN:96,_RNCNvNtNtCshsDc5n3nbao_13qsoripper_tui2ui6header18space_weather_lines0_0B7_
FN:96,_RNCNvNtNtCshsDc5n3nbao_13qsoripper_tui2ui6header18space_weather_lines1_0B7_
FN:99,_RNCNvNtNtCshsDc5n3nbao_13qsoripper_tui2ui6header18space_weather_lines2_0B7_
FN:99,_RNCNvNtNtCshsDc5n3nbao_13qsoripper_tui2ui6header18space_weather_lines3_0B7_
FN:101,_RNCNvNtNtCshsDc5n3nbao_13qsoripper_tui2ui6header18space_weather_lines4_0B7_
FN:93,_RNCNvNtNtCshsDc5n3nbao_13qsoripper_tui2ui6header18space_weather_lines_0B7_
FN:83,_RNvNtNtCshsDc5n3nbao_13qsoripper_tui2ui6header18space_weather_line
FN:14,_RNvNtNtCshsDc5n3nbao_13qsoripper_tui2ui6header6render
FNDA:0,_RNCNvNtNtCshsDc5n3nbao_13qsoripper_tui2ui6header18space_weather_line0B7_
FNDA:0,_RNCNvNtNtCshsDc5n3nbao_13qsoripper_tui2ui6header18space_weather_lines0_0B7_
FNDA:1,_RNCNvNtNtCshsDc5n3nbao_13qsoripper_tui2ui6header18space_weather_lines1_0B7_
FNDA:0,_RNCNvNtNtCshsDc5n3nbao_13qsoripper_tui2ui6header18space_weather_lines2_0B7_
FNDA:1,_RNCNvNtNtCshsDc5n3nbao_13qsoripper_tui2ui6header18space_weather_lines3_0B7_
FNDA:1,_RNCNvNtNtCshsDc5n3nbao_13qsoripper_tui2ui6header18space_weather_lines4_0B7_
FNDA:1,_RNCNvNtNtCshsDc5n3nbao_13qsoripper_tui2ui6header18space_weather_lines_0B7_
FNDA:20,_RNvNtNtCshsDc5n3nbao_13qsoripper_tui2ui6header18space_weather_line
FNDA:20,_RNvNtNtCshsDc5n3nbao_13qsoripper_tui2ui6header6render
FNF:9
FNH:6
DA:14,20
DA:15,20
DA:16,20
DA:17,20
DA:18,20
DA:19,20
DA:20,20
DA:22,20
DA:23,20
DA:24,20
DA:27,20
DA:28,20
DA:29,20
DA:30,20
DA:31,20
DA:33,20
DA:34,20
DA:35,20
DA:37,20
DA:39,20
DA:42,20
DA:43,20
DA:44,20
DA:45,20
DA:46,20
DA:50,20
DA:51,20
DA:52,20
DA:53,20
DA:54,20
DA:55,20
DA:56,20
DA:57,20
DA:58,20
DA:62,20
DA:63,20
DA:64,20
DA:65,20
DA:66,20
DA:67,20
DA:68,20
DA:69,20
DA:70,20
DA:71,20
DA:74,20
DA:75,20
DA:76,20
DA:77,20
DA:78,20
DA:80,20
DA:83,20
DA:84,20
DA:85,19
DA:87,19
DA:91,1
DA:92,1
DA:93,1
DA:94,1
DA:95,1
DA:96,1
DA:97,1
DA:98,1
DA:99,1
DA:101,1
DA:102,1
DA:103,0
DA:104,1
DA:105,1
DA:107,0
DA:109,1
DA:111,1
DA:112,1
DA:113,1
DA:114,1
DA:115,1
DA:117,1
DA:118,1
DA:119,1
DA:120,1
DA:122,20
BRF:0
BRH:0
LF:87
LH:82
end_of_record
SF:C:\src\github\rtreit\qsoripper\src\rust\qsoripper-tui\src\ui\help.rs
FN:32,_RNCNvNtNtCshsDc5n3nbao_13qsoripper_tui2ui4help6render0B7_
FN:34,_RNCNvNtNtCshsDc5n3nbao_13qsoripper_tui2ui4help6renders_0B7_
FN:100,_RNvNtNtCshsDc5n3nbao_13qsoripper_tui2ui4help13centered_rect
FN:12,_RNvNtNtCshsDc5n3nbao_13qsoripper_tui2ui4help6render
FNDA:3,_RNCNvNtNtCshsDc5n3nbao_13qsoripper_tui2ui4help6render0B7_
FNDA:23,_RNCNvNtNtCshsDc5n3nbao_13qsoripper_tui2ui4help6renders_0B7_
FNDA:1,_RNvNtNtCshsDc5n3nbao_13qsoripper_tui2ui4help13centered_rect
FNDA:1,_RNvNtNtCshsDc5n3nbao_13qsoripper_tui2ui4help6render
FNF:4
FNH:4
DA:12,1
DA:13,1
DA:14,1
DA:16,1
DA:17,1
DA:18,1
DA:19,1
DA:22,1
DA:23,1
DA:24,1
DA:25,1
DA:26,1
DA:27,1
DA:28,1
DA:30,1
DA:32,3
DA:34,23
DA:35,23
DA:36,23
DA:37,23
DA:38,23
DA:39,23
DA:41,23
DA:43,1
DA:44,1
DA:45,1
DA:46,1
DA:47,1
DA:48,1
DA:49,1
DA:50,1
DA:51,1
DA:52,1
DA:53,1
DA:54,1
DA:55,1
DA:56,1
DA:57,1
DA:58,1
DA:59,1
DA:61,1
DA:62,1
DA:63,1
DA:64,1
DA:65,1
DA:66,1
DA:67,1
DA:68,1
DA:69,1
DA:70,1
DA:71,1
DA:72,1
DA:73,1
DA:74,11
DA:75,10
DA:76,10
DA:77,1
DA:79,1
DA:80,1
DA:81,1
DA:82,1
DA:83,1
DA:84,1
DA:85,1
DA:86,1
DA:87,1
DA:89,1
DA:91,1
DA:92,1
DA:93,1
DA:96,1
DA:97,1
DA:100,1
DA:101,1
DA:102,1
DA:104,1
DA:105,1
DA:106,1
DA:107,1
DA:108,1
DA:109,1
DA:111,1
DA:113,1
DA:114,1
DA:115,1
DA:116,1
DA:117,1
DA:118,1
DA:120,1
DA:121,1
BRF:0
BRH:0
LF:92
LH:92
end_of_record
SF:C:\src\github\rtreit\qsoripper\src\rust\qsoripper-tui\src\ui\log_form.rs
FN:266,_RNvNtNtCshsDc5n3nbao_13qsoripper_tui2ui8log_form11cycle_value
FN:243,_RNvNtNtCshsDc5n3nbao_13qsoripper_tui2ui8log_form11field_value
FN:297,_RNvNtNtCshsDc5n3nbao_13qsoripper_tui2ui8log_form12styled_cycle
FN:275,_RNvNtNtCshsDc5n3nbao_13qsoripper_tui2ui8log_form12styled_field
FN:101,_RNvNtNtCshsDc5n3nbao_13qsoripper_tui2ui8log_form14render_rst_row
FN:144,_RNvNtNtCshsDc5n3nbao_13qsoripper_tui2ui8log_form15render_freq_row
FN:193,_RNvNtNtCshsDc5n3nbao_13qsoripper_tui2ui8log_form16render_hints_row
FN:131,_RNvNtNtCshsDc5n3nbao_13qsoripper_tui2ui8log_form16render_notes_row
FN:118,_RNvNtNtCshsDc5n3nbao_13qsoripper_tui2ui8log_form18render_comment_row
FN:77,_RNvNtNtCshsDc5n3nbao_13qsoripper_tui2ui8log_form19render_callsign_row
FN:167,_RNvNtNtCshsDc5n3nbao_13qsoripper_tui2ui8log_form19render_duration_row
FN:88,_RNvNtNtCshsDc5n3nbao_13qsoripper_tui2ui8log_form20render_band_mode_row
FN:26,_RNvNtNtCshsDc5n3nbao_13qsoripper_tui2ui8log_form6render
FN:227,_RNvNtNtCshsDc5n3nbao_13qsoripper_tui2ui8log_form7label_m
FNDA:28,_RNvNtNtCshsDc5n3nbao_13qsoripper_tui2ui8log_form11cycle_value
FNDA:112,_RNvNtNtCshsDc5n3nbao_13qsoripper_tui2ui8log_form11field_value
FNDA:28,_RNvNtNtCshsDc5n3nbao_13qsoripper_tui2ui8log_form12styled_cycle
FNDA:149,_RNvNtNtCshsDc5n3nbao_13qsoripper_tui2ui8log_form12styled_field
FNDA:14,_RNvNtNtCshsDc5n3nbao_13qsoripper_tui2ui8log_form14render_rst_row
FNDA:14,_RNvNtNtCshsDc5n3nbao_13qsoripper_tui2ui8log_form15render_freq_row
FNDA:14,_RNvNtNtCshsDc5n3nbao_13qsoripper_tui2ui8log_form16render_hints_row
FNDA:14,_RNvNtNtCshsDc5n3nbao_13qsoripper_tui2ui8log_form16render_notes_row
FNDA:14,_RNvNtNtCshsDc5n3nbao_13qsoripper_tui2ui8log_form18render_comment_row
FNDA:14,_RNvNtNtCshsDc5n3nbao_13qsoripper_tui2ui8log_form19render_callsign_row
FNDA:14,_RNvNtNtCshsDc5n3nbao_13qsoripper_tui2ui8log_form19render_duration_row
FNDA:14,_RNvNtNtCshsDc5n3nbao_13qsoripper_tui2ui8log_form20render_band_mode_row
FNDA:15,_RNvNtNtCshsDc5n3nbao_13qsoripper_tui2ui8log_form6render
FNDA:140,_RNvNtNtCshsDc5n3nbao_13qsoripper_tui2ui8log_form7label_m
FNF:14
FNH:14
DA:26,15
DA:27,15
DA:28,1
DA:30,14
DA:32,15
DA:33,15
DA:34,15
DA:36,15
DA:37,15
DA:38,15
DA:39,1
DA:40,14
DA:42,14
DA:43,14
DA:44,14
DA:45,14
DA:46,14
DA:47,14
DA:48,14
DA:49,14
DA:50,14
DA:51,14
DA:52,14
DA:53,14
DA:55,14
DA:56,14
DA:57,14
DA:58,14
DA:59,14
DA:60,14
DA:61,14
DA:62,14
DA:64,14
DA:66,14
DA:67,14
DA:68,14
DA:69,14
DA:70,14
DA:71,14
DA:72,14
DA:73,14
DA:74,15
DA:77,14
DA:78,14
DA:79,14
DA:80,14
DA:81,14
DA:82,14
DA:83,14
DA:84,14
DA:85,14
DA:88,14
DA:89,14
DA:90,14
DA:91,14
DA:92,14
DA:93,14
DA:94,14
DA:95,14
DA:96,14
DA:97,14
DA:98,14
DA:101,14
DA:102,14
DA:103,14
DA:104,14
DA:105,14
DA:106,14
DA:107,14
DA:108,14
DA:109,14
DA:110,14
DA:111,14
DA:112,14
DA:113,14
DA:114,14
DA:115,14
DA:118,14
DA:119,14
DA:120,14
DA:121,14
DA:122,14
DA:123,14
DA:124,14
DA:125,14
DA:126,14
DA:127,14
DA:128,14
DA:131,14
DA:132,14
DA:133,14
DA:134,14
DA:135,14
DA:136,14
DA:137,14
DA:138,14
DA:139,14
DA:140,14
DA:141,14
DA:144,14
DA:145,14
DA:146,14
DA:147,14
DA:148,14
DA:149,14
DA:150,14
DA:151,14
DA:152,14
DA:153,14
DA:154,14
DA:155,14
DA:156,14
DA:157,14
DA:158,14
DA:159,14
DA:160,14
DA:161,14
DA:162,14
DA:163,14
DA:164,14
DA:167,14
DA:168,14
DA:169,1
DA:170,1
DA:171,1
DA:172,1
DA:173,1
DA:174,1
DA:175,13
DA:176,12
DA:178,1
DA:179,1
DA:180,1
DA:181,1
DA:183,14
DA:184,14
DA:185,14
DA:186,14
DA:188,14
DA:190,14
DA:193,14
DA:194,14
DA:195,14
DA:196,14
DA:197,14
DA:199,14
DA:200,14
DA:201,14
DA:202,14
DA:204,14
DA:205,14
DA:207,14
DA:209,14
DA:210,14
DA:212,14
DA:214,14
DA:215,14
DA:217,14
DA:220,14
DA:222,14
DA:227,140
DA:228,140
DA:229,140
DA:230,140
DA:231,140
DA:232,140
DA:233,140
DA:234,140
DA:235,140
DA:236,140
DA:237,140
DA:243,112
DA:244,112
DA:245,0
DA:246,0
DA:247,0
DA:249,0
DA:252,112
DA:253,112
DA:254,14
DA:255,98
DA:256,112
DA:257,112
DA:258,0
DA:260,112
DA:263,112
DA:266,28
DA:267,28
DA:268,0
DA:270,28
DA:272,28
DA:275,149
DA:276,149
DA:277,1
DA:278,1
DA:279,1
DA:280,1
DA:281,1
DA:282,1
DA:284,148
DA:285,15
DA:286,15
DA:287,15
DA:288,15
DA:289,15
DA:292,133
DA:294,149
DA:297,28
DA:298,28
DA:299,0
DA:300,0
DA:301,0
DA:302,0
DA:303,0
DA:306,28
DA:308,28
BRF:0
BRH:0
LF:216
LH:205
end_of_record
SF:C:\src\github\rtreit\qsoripper\src\rust\qsoripper-tui\src\ui\lookup_panel.rs
FN:81,_RNCNvNtNtCshsDc5n3nbao_13qsoripper_tui2ui12lookup_panel6render0B7_
FN:81,_RNCNvNtNtCshsDc5n3nbao_13qsoripper_tui2ui12lookup_panel6renders_0B7_
FN:14,_RNvNtNtCshsDc5n3nbao_13qsoripper_tui2ui12lookup_panel6render
FNDA:1,_RNCNvNtNtCshsDc5n3nbao_13qsoripper_tui2ui12lookup_panel6render0B7_
FNDA:1,_RNCNvNtNtCshsDc5n3nbao_13qsoripper_tui2ui12lookup_panel6renders_0B7_
FNDA:20,_RNvNtNtCshsDc5n3nbao_13qsoripper_tui2ui12lookup_panel6render
FNF:3
FNH:3
DA:14,20
DA:15,20
DA:16,2
DA:18,18
DA:21,20
DA:22,20
DA:23,20
DA:25,20
DA:26,20
DA:28,20
DA:29,18
DA:30,1
DA:32,17
DA:34,18
DA:35,18
DA:36,18
DA:37,18
DA:39,18
DA:41,18
DA:44,2
DA:45,2
DA:47,2
DA:48,2
DA:51,2
DA:52,2
DA:53,2
DA:54,2
DA:55,2
DA:56,2
DA:57,2
DA:60,2
DA:61,2
DA:62,2
DA:63,2
DA:64,2
DA:67,2
DA:70,2
DA:71,2
DA:72,2
DA:73,2
DA:74,2
DA:77,2
DA:78,2
DA:79,2
DA:80,2
DA:81,2
DA:82,2
DA:84,2
DA:85,2
DA:86,2
DA:87,2
DA:88,2
DA:91,2
DA:92,20
BRF:0
BRH:0
LF:56
LH:56
end_of_record
SF:C:\src\github\rtreit\qsoripper\src\rust\qsoripper-tui\src\ui\mod.rs
FN:174,_RNCNvNtNtCshsDc5n3nbao_13qsoripper_tui2ui5testss_16render_help_view0B7_
FN:122,_RNCNvNtNtCshsDc5n3nbao_13qsoripper_tui2ui5testss_21render_log_entry_view0B7_
FN:308,_RNCNvNtNtCshsDc5n3nbao_13qsoripper_tui2ui5testss_21render_small_terminal0B7_
FN:139,_RNCNvNtNtCshsDc5n3nbao_13qsoripper_tui2ui5testss_24render_advanced_main_tab0B7_
FN:208,_RNCNvNtNtCshsDc5n3nbao_13qsoripper_tui2ui5testss_25render_with_error_message0B7_
FN:265,_RNCNvNtNtCshsDc5n3nbao_13qsoripper_tui2ui5testss_25render_with_lookup_result0B7_
FN:166,_RNCNvNtNtCshsDc5n3nbao_13qsoripper_tui2ui5testss_26render_advanced_awards_tab0B7_
FN:248,_RNCNvNtNtCshsDc5n3nbao_13qsoripper_tui2ui5testss_26render_with_search_focused0B7_
FN:200,_RNCNvNtNtCshsDc5n3nbao_13qsoripper_tui2ui5testss_26render_with_status_message0B7_
FN:148,_RNCNvNtNtCshsDc5n3nbao_13qsoripper_tui2ui5testss_27render_advanced_contest_tab0B7_
FN:300,_RNCNvNtNtCshsDc5n3nbao_13qsoripper_tui2ui5testss_28render_with_qso_timer_active0B7_
FN:228,_RNCNvNtNtCshsDc5n3nbao_13qsoripper_tui2ui5testss_28render_without_space_weather0B7_
FN:157,_RNCNvNtNtCshsDc5n3nbao_13qsoripper_tui2ui5testss_29render_advanced_technical_tab0B7_
FN:130,_RNCNvNtNtCshsDc5n3nbao_13qsoripper_tui2ui5testss_29render_log_entry_editing_mode0B7_
FN:220,_RNCNvNtNtCshsDc5n3nbao_13qsoripper_tui2ui5testss_30render_with_space_weather_data0B7_
FN:239,_RNCNvNtNtCshsDc5n3nbao_13qsoripper_tui2ui5testss_37render_with_recent_qsos_and_selection0B7_
FN:182,_RNCNvNtNtCshsDc5n3nbao_13qsoripper_tui2ui5testss_39render_confirm_delete_view_no_candidate0B7_
FN:192,_RNCNvNtNtCshsDc5n3nbao_13qsoripper_tui2ui5testss_41render_confirm_delete_view_with_candidate0B7_
FN:281,_RNCNvNtNtCshsDc5n3nbao_13qsoripper_tui2ui5testss_44render_with_lookup_result_no_optional_fields0B7_
FN:291,_RNCNvNtNtCshsDc5n3nbao_13qsoripper_tui2ui5testss_46render_advanced_with_focused_callsign_selected0B7_
FN:64,_RNvNtCshsDc5n3nbao_13qsoripper_tui2ui17render_status_bar
FN:23,_RNvNtCshsDc5n3nbao_13qsoripper_tui2ui9render_ui
FN:94,_RNvNtNtCshsDc5n3nbao_13qsoripper_tui2ui5tests13make_terminal
FN:99,_RNvNtNtCshsDc5n3nbao_13qsoripper_tui2ui5tests8make_app
FN:103,_RNvNtNtCshsDc5n3nbao_13qsoripper_tui2ui5tests8make_qso
FN:170,_RNvNtNtCshsDc5n3nbao_13qsoripper_tui2ui5testss_16render_help_view
FN:119,_RNvNtNtCshsDc5n3nbao_13qsoripper_tui2ui5testss_21render_log_entry_view
FN:304,_RNvNtNtCshsDc5n3nbao_13qsoripper_tui2ui5testss_21render_small_terminal
FN:134,_RNvNtNtCshsDc5n3nbao_13qsoripper_tui2ui5testss_24render_advanced_main_tab
FN:204,_RNvNtNtCshsDc5n3nbao_13qsoripper_tui2ui5testss_25render_with_error_message
FN:252,_RNvNtNtCshsDc5n3nbao_13qsoripper_tui2ui5testss_25render_with_lookup_result
FN:161,_RNvNtNtCshsDc5n3nbao_13qsoripper_tui2ui5testss_26render_advanced_awards_tab
FN:243,_RNvNtNtCshsDc5n3nbao_13qsoripper_tui2ui5testss_26render_with_search_focused
FN:196,_RNvNtNtCshsDc5n3nbao_13qsoripper_tui2ui5testss_26render_with_status_message
FN:143,_RNvNtNtCshsDc5n3nbao_13qsoripper_tui2ui5testss_27render_advanced_contest_tab
FN:295,_RNvNtNtCshsDc5n3nbao_13qsoripper_tui2ui5testss_28render_with_qso_timer_active
FN:224,_RNvNtNtCshsDc5n3nbao_13qsoripper_tui2ui5testss_28render_without_space_weather
FN:152,_RNvNtNtCshsDc5n3nbao_13qsoripper_tui2ui5testss_29render_advanced_technical_tab
FN:126,_RNvNtNtCshsDc5n3nbao_13qsoripper_tui2ui5testss_29render_log_entry_editing_mode
FN:212,_RNvNtNtCshsDc5n3nbao_13qsoripper_tui2ui5testss_30render_with_space_weather_data
FN:232,_RNvNtNtCshsDc5n3nbao_13qsoripper_tui2ui5testss_37render_with_recent_qsos_and_selection
FN:178,_RNvNtNtCshsDc5n3nbao_13qsoripper_tui2ui5testss_39render_confirm_delete_view_no_candidate
FN:186,_RNvNtNtCshsDc5n3nbao_13qsoripper_tui2ui5testss_41render_confirm_delete_view_with_candidate
FN:269,_RNvNtNtCshsDc5n3nbao_13qsoripper_tui2ui5testss_44render_with_lookup_result_no_optional_fields
FN:285,_RNvNtNtCshsDc5n3nbao_13qsoripper_tui2ui5testss_46render_advanced_with_focused_callsign_selected
FNDA:1,_RNCNvNtNtCshsDc5n3nbao_13qsoripper_tui2ui5testss_16render_help_view0B7_
FNDA:1,_RNCNvNtNtCshsDc5n3nbao_13qsoripper_tui2ui5testss_21render_log_entry_view0B7_
FNDA:1,_RNCNvNtNtCshsDc5n3nbao_13qsoripper_tui2ui5testss_21render_small_terminal0B7_
FNDA:1,_RNCNvNtNtCshsDc5n3nbao_13qsoripper_tui2ui5testss_24render_advanced_main_tab0B7_
FNDA:1,_RNCNvNtNtCshsDc5n3nbao_13qsoripper_tui2ui5testss_25render_with_error_message0B7_
FNDA:1,_RNCNvNtNtCshsDc5n3nbao_13qsoripper_tui2ui5testss_25render_with_lookup_result0B7_
FNDA:1,_RNCNvNtNtCshsDc5n3nbao_13qsoripper_tui2ui5testss_26render_advanced_awards_tab0B7_
FNDA:1,_RNCNvNtNtCshsDc5n3nbao_13qsoripper_tui2ui5testss_26render_with_search_focused0B7_
FNDA:1,_RNCNvNtNtCshsDc5n3nbao_13qsoripper_tui2ui5testss_26render_with_status_message0B7_
FNDA:1,_RNCNvNtNtCshsDc5n3nbao_13qsoripper_tui2ui5testss_27render_advanced_contest_tab0B7_
FNDA:1,_RNCNvNtNtCshsDc5n3nbao_13qsoripper_tui2ui5testss_28render_with_qso_timer_active0B7_
FNDA:1,_RNCNvNtNtCshsDc5n3nbao_13qsoripper_tui2ui5testss_28render_without_space_weather0B7_
FNDA:1,_RNCNvNtNtCshsDc5n3nbao_13qsoripper_tui2ui5testss_29render_advanced_technical_tab0B7_
FNDA:1,_RNCNvNtNtCshsDc5n3nbao_13qsoripper_tui2ui5testss_29render_log_entry_editing_mode0B7_
FNDA:1,_RNCNvNtNtCshsDc5n3nbao_13qsoripper_tui2ui5testss_30render_with_space_weather_data0B7_
FNDA:1,_RNCNvNtNtCshsDc5n3nbao_13qsoripper_tui2ui5testss_37render_with_recent_qsos_and_selection0B7_
FNDA:1,_RNCNvNtNtCshsDc5n3nbao_13qsoripper_tui2ui5testss_39render_confirm_delete_view_no_candidate0B7_
FNDA:1,_RNCNvNtNtCshsDc5n3nbao_13qsoripper_tui2ui5testss_41render_confirm_delete_view_with_candidate0B7_
FNDA:1,_RNCNvNtNtCshsDc5n3nbao_13qsoripper_tui2ui5testss_44render_with_lookup_result_no_optional_fields0B7_
FNDA:1,_RNCNvNtNtCshsDc5n3nbao_13qsoripper_tui2ui5testss_46render_advanced_with_focused_callsign_selected0B7_
FNDA:20,_RNvNtCshsDc5n3nbao_13qsoripper_tui2ui17render_status_bar
FNDA:20,_RNvNtCshsDc5n3nbao_13qsoripper_tui2ui9render_ui
FNDA:19,_RNvNtNtCshsDc5n3nbao_13qsoripper_tui2ui5tests13make_terminal
FNDA:20,_RNvNtNtCshsDc5n3nbao_13qsoripper_tui2ui5tests8make_app
FNDA:3,_RNvNtNtCshsDc5n3nbao_13qsoripper_tui2ui5tests8make_qso
FNDA:1,_RNvNtNtCshsDc5n3nbao_13qsoripper_tui2ui5testss_16render_help_view
FNDA:1,_RNvNtNtCshsDc5n3nbao_13qsoripper_tui2ui5testss_21render_log_entry_view
FNDA:1,_RNvNtNtCshsDc5n3nbao_13qsoripper_tui2ui5testss_21render_small_terminal
FNDA:1,_RNvNtNtCshsDc5n3nbao_13qsoripper_tui2ui5testss_24render_advanced_main_tab
FNDA:1,_RNvNtNtCshsDc5n3nbao_13qsoripper_tui2ui5testss_25render_with_error_message
FNDA:1,_RNvNtNtCshsDc5n3nbao_13qsoripper_tui2ui5testss_25render_with_lookup_result
FNDA:1,_RNvNtNtCshsDc5n3nbao_13qsoripper_tui2ui5testss_26render_advanced_awards_tab
FNDA:1,_RNvNtNtCshsDc5n3nbao_13qsoripper_tui2ui5testss_26render_with_search_focused
FNDA:1,_RNvNtNtCshsDc5n3nbao_13qsoripper_tui2ui5testss_26render_with_status_message
FNDA:1,_RNvNtNtCshsDc5n3nbao_13qsoripper_tui2ui5testss_27render_advanced_contest_tab
FNDA:1,_RNvNtNtCshsDc5n3nbao_13qsoripper_tui2ui5testss_28render_with_qso_timer_active
FNDA:1,_RNvNtNtCshsDc5n3nbao_13qsoripper_tui2ui5testss_28render_without_space_weather
FNDA:1,_RNvNtNtCshsDc5n3nbao_13qsoripper_tui2ui5testss_29render_advanced_technical_tab
FNDA:1,_RNvNtNtCshsDc5n3nbao_13qsoripper_tui2ui5testss_29render_log_entry_editing_mode
FNDA:1,_RNvNtNtCshsDc5n3nbao_13qsoripper_tui2ui5testss_30render_with_space_weather_data
FNDA:1,_RNvNtNtCshsDc5n3nbao_13qsoripper_tui2ui5testss_37render_with_recent_qsos_and_selection
FNDA:1,_RNvNtNtCshsDc5n3nbao_13qsoripper_tui2ui5testss_39render_confirm_delete_view_no_candidate
FNDA:1,_RNvNtNtCshsDc5n3nbao_13qsoripper_tui2ui5testss_41render_confirm_delete_view_with_candidate
FNDA:1,_RNvNtNtCshsDc5n3nbao_13qsoripper_tui2ui5testss_44render_with_lookup_result_no_optional_fields
FNDA:1,_RNvNtNtCshsDc5n3nbao_13qsoripper_tui2ui5testss_46render_advanced_with_focused_callsign_selected
FNF:45
FNH:45
DA:23,20
DA:24,20
DA:26,20
DA:27,20
DA:28,20
DA:29,20
DA:30,20
DA:31,20
DA:32,20
DA:33,20
DA:34,20
DA:36,20
DA:37,20
DA:38,20
DA:39,20
DA:40,20
DA:41,20
DA:43,20
DA:44,20
DA:45,20
DA:46,5
DA:47,15
DA:48,15
DA:49,15
DA:50,20
DA:51,20
DA:52,20
DA:54,20
DA:55,1
DA:56,19
DA:58,20
DA:59,2
DA:60,18
DA:61,20
DA:64,20
DA:65,20
DA:66,20
DA:67,20
DA:69,20
DA:70,2
DA:71,1
DA:73,1
DA:75,2
DA:76,2
DA:77,2
DA:80,18
DA:83,20
DA:84,20
DA:94,19
DA:95,19
DA:96,19
DA:97,19
DA:99,20
DA:100,20
DA:101,20
DA:103,3
DA:104,3
DA:105,3
DA:106,3
DA:107,3
DA:108,3
DA:109,3
DA:110,3
DA:111,3
DA:112,3
DA:113,3
DA:114,3
DA:115,3
DA:116,3
DA:119,1
DA:120,1
DA:121,1
DA:122,1
DA:123,1
DA:126,1
DA:127,1
DA:128,1
DA:129,1
DA:130,1
DA:131,1
DA:134,1
DA:135,1
DA:136,1
DA:137,1
DA:138,1
DA:139,1
DA:140,1
DA:143,1
DA:144,1
DA:145,1
DA:146,1
DA:147,1
DA:148,1
DA:149,1
DA:152,1
DA:153,1
DA:154,1
DA:155,1
DA:156,1
DA:157,1
DA:158,1
DA:161,1
DA:162,1
DA:163,1
DA:164,1
DA:165,1
DA:166,1
DA:167,1
DA:170,1
DA:171,1
DA:172,1
DA:173,1
DA:174,1
DA:175,1
DA:178,1
DA:179,1
DA:180,1
DA:181,1
DA:182,1
DA:183,1
DA:186,1
DA:187,1
DA:188,1
DA:189,1
DA:190,1
DA:191,1
DA:192,1
DA:193,1
DA:196,1
DA:197,1
DA:198,1
DA:199,1
DA:200,1
DA:201,1
DA:204,1
DA:205,1
DA:206,1
DA:207,1
DA:208,1
DA:209,1
DA:212,1
DA:213,1
DA:214,1
DA:215,1
DA:216,1
DA:217,1
DA:218,1
DA:219,1
DA:220,1
DA:221,1
DA:224,1
DA:225,1
DA:226,1
DA:227,1
DA:228,1
DA:229,1
DA:232,1
DA:233,1
DA:234,1
DA:235,1
DA:236,1
DA:237,1
DA:238,1
DA:239,1
DA:240,1
DA:243,1
DA:244,1
DA:245,1
DA:246,1
DA:247,1
DA:248,1
DA:249,1
DA:252,1
DA:253,1
DA:254,1
DA:255,1
DA:256,1
DA:257,1
DA:258,1
DA:259,1
DA:260,1
DA:261,1
DA:262,1
DA:263,1
DA:264,1
DA:265,1
DA:266,1
DA:269,1
DA:270,1
DA:271,1
DA:272,1
DA:273,1
DA:274,1
DA:275,1
DA:276,1
DA:277,1
DA:278,1
DA:279,1
DA:280,1
DA:281,1
DA:282,1
DA:285,1
DA:286,1
DA:287,1
DA:288,1
DA:289,1
DA:290,1
DA:291,1
DA:292,1
DA:295,1
DA:296,1
DA:297,1
DA:298,1
DA:299,1
DA:300,1
DA:301,1
DA:304,1
DA:305,1
DA:306,1
DA:307,1
DA:308,1
DA:309,1
BRF:0
BRH:0
LF:242
LH:242
end_of_record
SF:C:\src\github\rtreit\qsoripper\src\rust\qsoripper-tui\src\ui\recent_qsos.rs
FN:96,_RNvNtNtCshsDc5n3nbao_13qsoripper_tui2ui11recent_qsos12render_table
FN:68,_RNvNtNtCshsDc5n3nbao_13qsoripper_tui2ui11recent_qsos17render_search_row
FN:14,_RNvNtNtCshsDc5n3nbao_13qsoripper_tui2ui11recent_qsos6render
FN:108,_RNCNvNtNtCshsDc5n3nbao_13qsoripper_tui2ui11recent_qsos12render_table0B7_
FN:118,_RNCNvNtNtCshsDc5n3nbao_13qsoripper_tui2ui11recent_qsos12render_tables_0B7_
FN:74,_RNCNvNtNtCshsDc5n3nbao_13qsoripper_tui2ui11recent_qsos17render_search_row0B7_
FNDA:20,_RNvNtNtCshsDc5n3nbao_13qsoripper_tui2ui11recent_qsos12render_table
FNDA:1,_RNvNtNtCshsDc5n3nbao_13qsoripper_tui2ui11recent_qsos17render_search_row
FNDA:20,_RNvNtNtCshsDc5n3nbao_13qsoripper_tui2ui11recent_qsos6render
FNDA:160,_RNCNvNtNtCshsDc5n3nbao_13qsoripper_tui2ui11recent_qsos12render_table0B7_
FNDA:3,_RNCNvNtNtCshsDc5n3nbao_13qsoripper_tui2ui11recent_qsos12render_tables_0B7_
FNDA:0,_RNCNvNtNtCshsDc5n3nbao_13qsoripper_tui2ui11recent_qsos17render_search_row0B7_
FNF:6
FNH:5
DA:14,20
DA:15,20
DA:16,20
DA:18,20
DA:19,1
DA:20,19
DA:21,1
DA:23,18
DA:26,20
DA:27,20
DA:28,20
DA:29,19
DA:31,1
DA:34,20
DA:35,1
DA:36,19
DA:37,1
DA:38,18
DA:39,0
DA:41,18
DA:44,20
DA:45,20
DA:46,20
DA:48,20
DA:49,20
DA:51,20
DA:52,1
DA:53,1
DA:54,1
DA:55,1
DA:56,1
DA:58,19
DA:61,20
DA:62,1
DA:63,19
DA:65,20
DA:66,20
DA:68,1
DA:69,1
DA:70,1
DA:71,1
DA:72,0
DA:73,0
DA:74,0
DA:75,0
DA:77,1
DA:80,1
DA:81,1
DA:82,1
DA:83,1
DA:84,1
DA:85,1
DA:86,1
DA:89,1
DA:90,1
DA:91,1
DA:93,1
DA:94,1
DA:96,20
DA:97,20
DA:98,20
DA:99,20
DA:100,20
DA:101,20
DA:102,20
DA:103,20
DA:104,20
DA:105,20
DA:106,20
DA:107,20
DA:108,160
DA:109,160
DA:110,160
DA:111,160
DA:112,160
DA:114,160
DA:116,20
DA:118,20
DA:119,3
DA:120,2
DA:122,1
DA:124,3
DA:125,3
DA:126,3
DA:127,3
DA:128,3
DA:129,3
DA:131,3
DA:132,3
DA:133,3
DA:134,3
DA:135,3
DA:136,3
DA:138,3
DA:139,3
DA:140,3
DA:142,20
DA:143,20
DA:144,20
DA:145,20
DA:146,20
DA:147,20
DA:148,20
DA:149,20
DA:150,20
DA:151,20
DA:153,20
DA:154,1
DA:155,1
DA:156,1
DA:157,1
DA:159,19
DA:162,20
DA:163,20
DA:164,20
DA:166,20
DA:167,20
DA:168,1
DA:170,19
DA:173,20
DA:174,20
BRF:0
BRH:0
LF:124
LH:118
end_of_record